---
triple:          'arm64-apple-darwin'
binary-path:     compression
relocations:
  - { offsetInCU: 0xB5, offset: 0xB5, size: 0x8, addend: 0x0, symName: __ZNSt19_Sp_counted_deleterIPjSt14default_deleteIA_jESaIvELN9__gnu_cxx12_Lock_policyE2EED1Ev, symObjAddr: 0x0, symBinAddr: 0x100001020, symSize: 0x4 }
  - { offsetInCU: 0x1C702, offset: 0x1C702, size: 0x8, addend: 0x0, symName: __ZStL8__ioinit, symObjAddr: 0x1F269D8, symBinAddr: 0x10003CC70, symSize: 0x0 }
  - { offsetInCU: 0x45D74, offset: 0x45D74, size: 0x8, addend: 0x0, symName: __ZN4FMCAL10LejaPointsE, symObjAddr: 0x315E0, symBinAddr: 0x100032200, symSize: 0x0 }
  - { offsetInCU: 0x470EED, offset: 0x470EED, size: 0x8, addend: 0x0, symName: __ZN5Eigen8internal16parallelize_gemmILb1ENS0_12gemm_functorIdlNS0_29general_matrix_matrix_productIldLi1ELb0EdLi0ELb0ELi0ELi1EEENS_9TransposeIKNS_6MatrixIdLin1ELin1ELi0ELin1ELin1EEEEES7_S7_NS0_19gemm_blocking_spaceILi0EddLin1ELin1ELin1ELi1ELb0EEEEElEEvRKT0_T1_SG_SG_b, symObjAddr: 0x248C0, symBinAddr: 0x1000258E0, symSize: 0x374 }
  - { offsetInCU: 0x470EF5, offset: 0x470EF5, size: 0x8, addend: 0x0, symName: __ZN5Eigen8internal20generic_product_implINS_9TransposeIKNS_6MatrixIdLin1ELin1ELi0ELin1ELin1EEEEES4_NS_10DenseShapeES7_Li8EE13scaleAndAddToIS4_EEvRT_RKS6_RS5_RKd, symObjAddr: 0x24C34, symBinAddr: 0x100025C54, symSize: 0x58C }
  - { offsetInCU: 0x470E2B, offset: 0x470E2B, size: 0x8, addend: 0x0, symName: __ZN5Eigen8internal16parallelize_gemmILb1ENS0_12gemm_functorIdlNS0_29general_matrix_matrix_productIldLi1ELb0EdLi0ELb0ELi0ELi1EEENS_9TransposeIKNS_6MatrixIdLin1ELin1ELi0ELin1ELin1EEEEES7_S7_NS0_19gemm_blocking_spaceILi0EddLin1ELin1ELin1ELi1ELb0EEEEElEEvRKT0_T1_SG_SG_b._omp_fn.0, symObjAddr: 0x252A0, symBinAddr: 0x1000262C0, symSize: 0x190 }
  - { offsetInCU: 0x472010, offset: 0x472010, size: 0x8, addend: 0x0, symName: __ZN5Eigen8internal16parallelize_gemmILb1ENS0_12gemm_functorIdlNS0_29general_matrix_matrix_productIldLi0ELb0EdLi1ELb0ELi1ELi1EEENS_6MatrixIdLin1ELin1ELi0ELin1ELin1EEENS_9TransposeIKS6_EENS5_IdLin1ELin1ELi1ELin1ELin1EEENS0_19gemm_blocking_spaceILi1EddLin1ELin1ELin1ELi1ELb0EEEEElEEvRKT0_T1_SH_SH_b, symObjAddr: 0x1FB10, symBinAddr: 0x100020B30, symSize: 0x370 }
  - { offsetInCU: 0x471F43, offset: 0x471F43, size: 0x8, addend: 0x0, symName: __ZN5Eigen8internal16parallelize_gemmILb1ENS0_12gemm_functorIdlNS0_29general_matrix_matrix_productIldLi0ELb0EdLi1ELb0ELi1ELi1EEENS_6MatrixIdLin1ELin1ELi0ELin1ELin1EEENS_9TransposeIKS6_EENS5_IdLin1ELin1ELi1ELin1ELin1EEENS0_19gemm_blocking_spaceILi1EddLin1ELin1ELin1ELi1ELb0EEEEElEEvRKT0_T1_SH_SH_b._omp_fn.0, symObjAddr: 0x214D0, symBinAddr: 0x1000224F0, symSize: 0x180 }
  - { offsetInCU: 0x472F5E, offset: 0x472F5E, size: 0x8, addend: 0x0, symName: __ZN4FMCA8internal34SampletMatrixCompressorUnsymmetricINS_13H2SampletTreeINS_11ClusterTreeEEEE8compressINS_27unsymmetricNystromEvaluatorINS_14NystromMomentsINS_23TotalDegreeInterpolatorEEENS_10GradKernelEEEEEvRKT_, symObjAddr: 0x9770, symBinAddr: 0x10000A790, symSize: 0xF4 }
  - { offsetInCU: 0x472F66, offset: 0x472F66, size: 0x8, addend: 0x0, symName: __ZN5Eigen5BlockIKNS_6MatrixIdLin1ELin1ELi0ELin1ELin1EEELin1ELi1ELb1EEC1ERS3_l, symObjAddr: 0x9864, symBinAddr: 0x10000A884, symSize: 0x80 }
  - { offsetInCU: 0x4730EF, offset: 0x4730EF, size: 0x8, addend: 0x0, symName: __ZN4FMCA8internal34SampletMatrixCompressorUnsymmetricINS_13H2SampletTreeINS_11ClusterTreeEEEE8compressINS_27unsymmetricNystromEvaluatorINS_14NystromMomentsINS_23TotalDegreeInterpolatorEEENS_10GradKernelEEEEEvRKT_._omp_fn.0, symObjAddr: 0x2BF84, symBinAddr: 0x10002CFA4, symSize: 0xE1C }
  - { offsetInCU: 0x479C44, offset: 0x479C44, size: 0x8, addend: 0x0, symName: __ZN4FMCA8internal34SampletMatrixCompressorUnsymmetricINS_13H2SampletTreeINS_11ClusterTreeEEEE8compressINS_27unsymmetricNystromEvaluatorINS_14NystromMomentsINS_23TotalDegreeInterpolatorEEENS_10GradKernelEEEEEvRKT_._omp_fn.1, symObjAddr: 0x9070, symBinAddr: 0x10000A090, symSize: 0x4C0 }
  - { offsetInCU: 0x47B856, offset: 0x47B856, size: 0x8, addend: 0x0, symName: __ZN4FMCA8internal34SampletMatrixCompressorUnsymmetricINS_13H2SampletTreeINS_11ClusterTreeEEEE4initERKNS_15SampletTreeBaseIS4_EES9_dd, symObjAddr: 0x10184, symBinAddr: 0x1000111A4, symSize: 0x1DC }
  - { offsetInCU: 0x47B85E, offset: 0x47B85E, size: 0x8, addend: 0x0, symName: __ZN4FMCA8internal23evalLegendrePolynomialsIN5Eigen13MatrixWrapperIKNS2_13CwiseBinaryOpINS2_8internal18scalar_quotient_opIddEEKNS2_12ArrayWrapperIKNS4_INS5_20scalar_difference_opIddEEKNS2_5BlockIKNS2_6MatrixIdLin1ELin1ELi0ELin1ELin1EEELin1ELi1ELb1EEESG_EEEEKNS8_ISG_EEEEEEEESD_jRKNS2_10MatrixBaseIT_EE, symObjAddr: 0x10360, symBinAddr: 0x100011380, symSize: 0xDB0 }
  - { offsetInCU: 0x47B968, offset: 0x47B968, size: 0x8, addend: 0x0, symName: __ZN4FMCA8internal34SampletMatrixCompressorUnsymmetricINS_13H2SampletTreeINS_11ClusterTreeEEEE4initERKNS_15SampletTreeBaseIS4_EES9_dd._omp_fn.0, symObjAddr: 0xDAF0, symBinAddr: 0x10000EB10, symSize: 0x364 }
  - { offsetInCU: 0x47B970, offset: 0x47B970, size: 0x8, addend: 0x0, symName: __ZN4FMCA8internal23evalLegendrePolynomialsIN5Eigen13MatrixWrapperIKNS2_13CwiseBinaryOpINS2_8internal13scalar_sum_opIddEEKNS4_INS5_18scalar_quotient_opIddEEKNS4_INS5_17scalar_product_opIddEEKNS2_12ArrayWrapperIKNS2_5BlockIKNS2_6MatrixIdLin1ELin1ELi0ELin1ELin1EEELin1ELi1ELb1EEEEESK_EESK_EEKNS4_IS9_KNS4_INS5_20scalar_difference_opIddEESK_SK_EESK_EEEEEEEESF_jRKNS2_10MatrixBaseIT_EE, symObjAddr: 0xDE54, symBinAddr: 0x10000EE74, symSize: 0xFCC }
  - { offsetInCU: 0x47D304, offset: 0x47D304, size: 0x8, addend: 0x0, symName: __ZN5Eigen8internal16parallelize_gemmILb1ENS0_12gemm_functorIdlNS0_29general_matrix_matrix_productIldLi0ELb0EdLi0ELb0ELi0ELi1EEENS_6MatrixIdLin1ELin1ELi0ELin1ELin1EEENS_5BlockIS6_Lin1ELin1ELb1EEES6_NS0_19gemm_blocking_spaceILi0EddLin1ELin1ELin1ELi1ELb0EEEEElEEvRKT0_T1_SF_SF_b, symObjAddr: 0x1A6A0, symBinAddr: 0x10001B6C0, symSize: 0x380 }
  - { offsetInCU: 0x47D23F, offset: 0x47D23F, size: 0x8, addend: 0x0, symName: __ZN5Eigen8internal16parallelize_gemmILb1ENS0_12gemm_functorIdlNS0_29general_matrix_matrix_productIldLi0ELb0EdLi0ELb0ELi0ELi1EEENS_6MatrixIdLin1ELin1ELi0ELin1ELin1EEENS_5BlockIS6_Lin1ELin1ELb1EEES6_NS0_19gemm_blocking_spaceILi0EddLin1ELin1ELin1ELi1ELb0EEEEElEEvRKT0_T1_SF_SF_b._omp_fn.0, symObjAddr: 0x17420, symBinAddr: 0x100018440, symSize: 0x190 }
  - { offsetInCU: 0x47D247, offset: 0x47D247, size: 0x8, addend: 0x0, symName: __ZNK5Eigen19HouseholderSequenceINS_6MatrixIdLin1ELin1ELi0ELin1ELin1EEENS1_IdLin1ELi1ELi0ELin1ELi1EEELi1EE15essentialVectorEl, symObjAddr: 0x175B0, symBinAddr: 0x1000185D0, symSize: 0xD0 }
  - { offsetInCU: 0x47E5CF, offset: 0x47E5CF, size: 0x8, addend: 0x0, symName: __ZN5Eigen8internal16parallelize_gemmILb1ENS0_12gemm_functorIdlNS0_29general_matrix_matrix_productIldLi0ELb0EdLi0ELb0ELi0ELi1EEENS_6MatrixIdLin1ELin1ELi0ELin1ELin1EEES6_S6_NS0_19gemm_blocking_spaceILi0EddLin1ELin1ELin1ELi1ELb0EEEEElEEvRKT0_T1_SD_SD_b, symObjAddr: 0x16DA4, symBinAddr: 0x100017DC4, symSize: 0x36C }
  - { offsetInCU: 0x47E5D7, offset: 0x47E5D7, size: 0x8, addend: 0x0, symName: __ZN5Eigen8internal16parallelize_gemmILb1ENS0_12gemm_functorIdlNS0_29general_matrix_matrix_productIldLi0ELb0EdLi0ELb0ELi0ELi1EEENS_3RefINS_6MatrixIdLin1ELin1ELi0ELin1ELin1EEELi0ENS_11OuterStrideILin1EEEEESA_SA_NS0_19gemm_blocking_spaceILi0EddLin1ELin1ELin1ELi1ELb0EEEEElEEvRKT0_T1_SH_SH_b._omp_fn.0, symObjAddr: 0x17110, symBinAddr: 0x100018130, symSize: 0x190 }
  - { offsetInCU: 0x47E526, offset: 0x47E526, size: 0x8, addend: 0x0, symName: __ZN5Eigen8internal16parallelize_gemmILb1ENS0_12gemm_functorIdlNS0_29general_matrix_matrix_productIldLi0ELb0EdLi0ELb0ELi0ELi1EEENS_6MatrixIdLin1ELin1ELi0ELin1ELin1EEES6_S6_NS0_19gemm_blocking_spaceILi0EddLin1ELin1ELin1ELi1ELb0EEEEElEEvRKT0_T1_SD_SD_b._omp_fn.0, symObjAddr: 0x172A0, symBinAddr: 0x1000182C0, symSize: 0x180 }
  - { offsetInCU: 0x47E52E, offset: 0x47E52E, size: 0x8, addend: 0x0, symName: __ZN5Eigen8internal16parallelize_gemmILb1ENS0_12gemm_functorIdlNS0_29general_matrix_matrix_productIldLi0ELb0EdLi0ELb0ELi0ELi1EEENS_6MatrixIdLin1ELin1ELi0ELin1ELin1EEENS_5BlockIS6_Lin1ELin1ELb1EEES6_NS0_19gemm_blocking_spaceILi0EddLin1ELin1ELin1ELi1ELb0EEEEElEEvRKT0_T1_SF_SF_b._omp_fn.0, symObjAddr: 0x17420, symBinAddr: 0x100018440, symSize: 0x190 }
  - { offsetInCU: 0x47F4F4, offset: 0x47F4F4, size: 0x8, addend: 0x0, symName: __ZN5Eigen8internal16parallelize_gemmILb1ENS0_12gemm_functorIdlNS0_29general_matrix_matrix_productIldLi0ELb0EdLi1ELb0ELi0ELi1EEENS_6MatrixIdLin1ELin1ELi0ELin1ELin1EEENS_9TransposeIKS6_EES6_NS0_19gemm_blocking_spaceILi0EddLin1ELin1ELin1ELi1ELb0EEEEElEEvRKT0_T1_SG_SG_b, symObjAddr: 0x1E314, symBinAddr: 0x10001F334, symSize: 0x370 }
  - { offsetInCU: 0x47F4FC, offset: 0x47F4FC, size: 0x8, addend: 0x0, symName: __ZN5Eigen8internal20generic_product_implINS_6MatrixIdLin1ELin1ELi0ELin1ELin1EEENS_9TransposeIKS3_EENS_10DenseShapeES7_Li8EE13scaleAndAddToIS3_EEvRT_RS5_RKS6_RKd, symObjAddr: 0x1E684, symBinAddr: 0x10001F6A4, symSize: 0x50C }
  - { offsetInCU: 0x47F432, offset: 0x47F432, size: 0x8, addend: 0x0, symName: __ZN5Eigen8internal16parallelize_gemmILb1ENS0_12gemm_functorIdlNS0_29general_matrix_matrix_productIldLi0ELb0EdLi1ELb0ELi0ELi1EEENS_6MatrixIdLin1ELin1ELi0ELin1ELin1EEENS_9TransposeIKS6_EES6_NS0_19gemm_blocking_spaceILi0EddLin1ELin1ELin1ELi1ELb0EEEEElEEvRKT0_T1_SG_SG_b._omp_fn.0, symObjAddr: 0x21350, symBinAddr: 0x100022370, symSize: 0x180 }
  - { offsetInCU: 0x48053B, offset: 0x48053B, size: 0x8, addend: 0x0, symName: __ZN5Eigen8internal16parallelize_gemmILb1ENS0_12gemm_functorIdlNS0_29general_matrix_matrix_productIldLi0ELb0EdLi0ELb0ELi0ELi1EEENS_3RefINS_6MatrixIdLin1ELin1ELi0ELin1ELin1EEELi0ENS_11OuterStrideILin1EEEEESA_SA_NS0_19gemm_blocking_spaceILi0EddLin1ELin1ELin1ELi1ELb0EEEEElEEvRKT0_T1_SH_SH_b, symObjAddr: 0x22570, symBinAddr: 0x100023590, symSize: 0x374 }
  - { offsetInCU: 0x480543, offset: 0x480543, size: 0x8, addend: 0x0, symName: __ZN5Eigen8internal20generic_product_implINS_3RefINS_6MatrixIdLin1ELin1ELi0ELin1ELin1EEELi0ENS_11OuterStrideILin1EEEEES7_NS_10DenseShapeES8_Li8EE13scaleAndAddToIS7_EEvRT_RKS7_SE_RKd, symObjAddr: 0x228E4, symBinAddr: 0x100023904, symSize: 0x36C }
  - { offsetInCU: 0x480420, offset: 0x480420, size: 0x8, addend: 0x0, symName: __ZN5Eigen8internal16parallelize_gemmILb1ENS0_12gemm_functorIdlNS0_29general_matrix_matrix_productIldLi0ELb0EdLi0ELb0ELi0ELi1EEENS_3RefINS_6MatrixIdLin1ELin1ELi0ELin1ELin1EEELi0ENS_11OuterStrideILin1EEEEESA_SA_NS0_19gemm_blocking_spaceILi0EddLin1ELin1ELin1ELi1ELb0EEEEElEEvRKT0_T1_SH_SH_b._omp_fn.0, symObjAddr: 0x17110, symBinAddr: 0x100018130, symSize: 0x190 }
  - { offsetInCU: 0x480428, offset: 0x480428, size: 0x8, addend: 0x0, symName: __ZN5Eigen8internal16parallelize_gemmILb1ENS0_12gemm_functorIdlNS0_29general_matrix_matrix_productIldLi0ELb0EdLi0ELb0ELi0ELi1EEENS_6MatrixIdLin1ELin1ELi0ELin1ELin1EEES6_S6_NS0_19gemm_blocking_spaceILi0EddLin1ELin1ELin1ELi1ELb0EEEEElEEvRKT0_T1_SD_SD_b._omp_fn.0, symObjAddr: 0x172A0, symBinAddr: 0x1000182C0, symSize: 0x180 }
  - { offsetInCU: 0x4812D9, offset: 0x4812D9, size: 0x8, addend: 0x0, symName: __GLOBAL__sub_I_test_Compression_time.cpp, symObjAddr: 0x31470, symBinAddr: 0x100030540, symSize: 0x3C }
  - { offsetInCU: 0x4812ED, offset: 0x4812ED, size: 0x8, addend: 0x0, symName: __ZNSt19_Sp_counted_deleterIPjSt14default_deleteIA_jESaIvELN9__gnu_cxx12_Lock_policyE2EE14_M_get_deleterERKSt9type_info, symObjAddr: 0x4BE0, symBinAddr: 0x100005C00, symSize: 0x54 }
  - { offsetInCU: 0x4812F5, offset: 0x4812F5, size: 0x8, addend: 0x0, symName: __ZNSt8_Rb_treeIjSt4pairIKjN5Eigen6MatrixIdLin1ELin1ELi0ELin1ELin1EEEESt10_Select1stIS5_ESt7greaterIjESaIS5_EE8_M_eraseEPSt13_Rb_tree_nodeIS5_E.isra.0, symObjAddr: 0x4C34, symBinAddr: 0x100005C54, symSize: 0x1AC }
  - { offsetInCU: 0x48136C, offset: 0x48136C, size: 0x8, addend: 0x0, symName: __ZNSt19_Sp_counted_deleterIPjSt14default_deleteIA_jESaIvELN9__gnu_cxx12_Lock_policyE2EE10_M_destroyEv, symObjAddr: 0x48B0, symBinAddr: 0x1000058D0, symSize: 0x4 }
  - { offsetInCU: 0x481374, offset: 0x481374, size: 0x8, addend: 0x0, symName: __ZN4FMCA20IDDFSForwardIteratorINS_13H2SampletTreeINS_11ClusterTreeEEELb0EEppEv.isra.0, symObjAddr: 0x48B4, symBinAddr: 0x1000058D4, symSize: 0x12C }
  - { offsetInCU: 0x4813C3, offset: 0x4813C3, size: 0x8, addend: 0x0, symName: __ZNSt19_Sp_counted_deleterIPjSt14default_deleteIA_jESaIvELN9__gnu_cxx12_Lock_policyE2EE10_M_destroyEv, symObjAddr: 0x48B0, symBinAddr: 0x1000058D0, symSize: 0x4 }
  - { offsetInCU: 0x4813CB, offset: 0x4813CB, size: 0x8, addend: 0x0, symName: __ZN4FMCA20IDDFSForwardIteratorINS_13H2SampletTreeINS_11ClusterTreeEEELb0EEppEv.isra.0, symObjAddr: 0x48B4, symBinAddr: 0x1000058D4, symSize: 0x12C }
  - { offsetInCU: 0x4813E7, offset: 0x4813E7, size: 0x8, addend: 0x0, symName: __ZNSt19_Sp_counted_deleterIPjSt14default_deleteIA_jESaIvELN9__gnu_cxx12_Lock_policyE2EE10_M_destroyEv, symObjAddr: 0x48B0, symBinAddr: 0x1000058D0, symSize: 0x4 }
  - { offsetInCU: 0x4813EF, offset: 0x4813EF, size: 0x8, addend: 0x0, symName: __ZN4FMCA20IDDFSForwardIteratorINS_13H2SampletTreeINS_11ClusterTreeEEELb0EEppEv.isra.0, symObjAddr: 0x48B4, symBinAddr: 0x1000058D4, symSize: 0x12C }
  - { offsetInCU: 0x481424, offset: 0x481424, size: 0x8, addend: 0x0, symName: __ZNSt19_Sp_counted_deleterIPjSt14default_deleteIA_jESaIvELN9__gnu_cxx12_Lock_policyE2EE10_M_destroyEv, symObjAddr: 0x48B0, symBinAddr: 0x1000058D0, symSize: 0x4 }
  - { offsetInCU: 0x48142C, offset: 0x48142C, size: 0x8, addend: 0x0, symName: __ZN4FMCA20IDDFSForwardIteratorINS_13H2SampletTreeINS_11ClusterTreeEEELb0EEppEv.isra.0, symObjAddr: 0x48B4, symBinAddr: 0x1000058D4, symSize: 0x12C }
  - { offsetInCU: 0x481466, offset: 0x481466, size: 0x8, addend: 0x0, symName: __ZNSt19_Sp_counted_deleterIPjSt14default_deleteIA_jESaIvELN9__gnu_cxx12_Lock_policyE2EE10_M_disposeEv, symObjAddr: 0x10, symBinAddr: 0x100001030, symSize: 0x10 }
  - { offsetInCU: 0x48146E, offset: 0x48146E, size: 0x8, addend: 0x0, symName: __ZN5Eigen7MapBaseINS_5BlockIKNS_6MatrixIdLin1ELin1ELi0ELin1ELin1EEELin1ELi1ELb1EEELi0EEC2EPKdll.part.0, symObjAddr: 0x20, symBinAddr: 0x100001040, symSize: 0x30 }
  - { offsetInCU: 0x481550, offset: 0x481550, size: 0x8, addend: 0x0, symName: __ZNSt19_Sp_counted_deleterIPjSt14default_deleteIA_jESaIvELN9__gnu_cxx12_Lock_policyE2EED0Ev, symObjAddr: 0x4, symBinAddr: 0x100001024, symSize: 0xC }
  - { offsetInCU: 0x481580, offset: 0x481580, size: 0x8, addend: 0x0, symName: __ZNSt19_Sp_counted_deleterIPjSt14default_deleteIA_jESaIvELN9__gnu_cxx12_Lock_policyE2EED1Ev, symObjAddr: 0x0, symBinAddr: 0x100001020, symSize: 0x4 }
  - { offsetInCU: 0x481588, offset: 0x481588, size: 0x8, addend: 0x0, symName: __ZNSt19_Sp_counted_deleterIPjSt14default_deleteIA_jESaIvELN9__gnu_cxx12_Lock_policyE2EED0Ev, symObjAddr: 0x4, symBinAddr: 0x100001024, symSize: 0xC }
  - { offsetInCU: 0x4854A0, offset: 0x4854A0, size: 0x8, addend: 0x0, symName: __ZN5Eigen8internal23triangular_solve_matrixIdlLi1ELi2ELb0ELi0ELi0ELi1EE3runEllPKdlPdllRNS0_15level3_blockingIddEE, symObjAddr: 0x2CDA0, symBinAddr: 0x10002DDC0, symSize: 0x784 }
  - { offsetInCU: 0x4854A8, offset: 0x4854A8, size: 0x8, addend: 0x0, symName: __ZNK5Eigen18TriangularViewImplIKNS_6MatrixIdLin1ELin1ELi0ELin1ELin1EEELj2ENS_5DenseEE12solveInPlaceILi1ES2_EEvRKNS_10MatrixBaseIT0_EE, symObjAddr: 0x2D524, symBinAddr: 0x10002E544, symSize: 0x10C }
  - { offsetInCU: 0x488477, offset: 0x488477, size: 0x8, addend: 0x0, symName: __ZN5Eigen8internal17product_evaluatorINS_7ProductINS_9TransposeIKNS_6MatrixIdLin1ELin1ELi0ELin1ELin1EEEEES5_Li0EEELi8ENS_10DenseShapeES9_ddEC2ERKS8_, symObjAddr: 0x29A34, symBinAddr: 0x10002AA54, symSize: 0x12C }
  - { offsetInCU: 0x489B95, offset: 0x489B95, size: 0x8, addend: 0x0, symName: __ZN5Eigen8internal32product_triangular_matrix_matrixIdlLi1ELb1ELi0ELb0ELi0ELb0ELi0ELi1ELi0EE3runElllPKdlS4_lPdllRS3_RNS0_15level3_blockingIddEE, symObjAddr: 0x25D00, symBinAddr: 0x100026D20, symSize: 0x590 }
  - { offsetInCU: 0x489B9D, offset: 0x489B9D, size: 0x8, addend: 0x0, symName: __ZN5Eigen8internal35apply_block_householder_on_the_leftINS_5BlockINS_6MatrixIdLin1ELin1ELi0ELin1ELin1EEELin1ELin1ELb0EEES5_NS_11VectorBlockIKNS3_IdLin1ELi1ELi0ELin1ELi1EEELin1EEEEEvRT_RKT0_RKT1_b, symObjAddr: 0x26290, symBinAddr: 0x1000272B0, symSize: 0x790 }
  - { offsetInCU: 0x48B286, offset: 0x48B286, size: 0x8, addend: 0x0, symName: __ZN5Eigen8internal32product_triangular_matrix_matrixIdlLi2ELb1ELi1ELb0ELi0ELb0ELi0ELi1ELi0EE3runElllPKdlS4_lPdllRS3_RNS0_15level3_blockingIddEE, symObjAddr: 0x25540, symBinAddr: 0x100026560, symSize: 0x7C0 }
  - { offsetInCU: 0x48D116, offset: 0x48D116, size: 0x8, addend: 0x0, symName: __ZNK5Eigen18TriangularViewImplIKNS_6MatrixIdLin1ELin1ELi0ELin1ELin1EEELj2ENS_5DenseEE12solveInPlaceILi1ES2_EEvRKNS_10MatrixBaseIT0_EE, symObjAddr: 0x2D524, symBinAddr: 0x10002E544, symSize: 0x10C }
  - { offsetInCU: 0x48D66A, offset: 0x48D66A, size: 0x8, addend: 0x0, symName: __ZNK5Eigen18TriangularViewImplIKNS_6MatrixIdLin1ELin1ELi0ELin1ELin1EEELj5ENS_5DenseEE12solveInPlaceILi1ES2_EEvRKNS_10MatrixBaseIT0_EE, symObjAddr: 0x25430, symBinAddr: 0x100026450, symSize: 0x110 }
  - { offsetInCU: 0x49335B, offset: 0x49335B, size: 0x8, addend: 0x0, symName: __ZN5Eigen8internal29general_matrix_matrix_productIldLi1ELb0EdLi0ELb0ELi0ELi1EE3runElllPKdlS4_lPdlldRNS0_15level3_blockingIddEEPNS0_16GemmParallelInfoIlEE, symObjAddr: 0x23FC0, symBinAddr: 0x100024FE0, symSize: 0x900 }
  - { offsetInCU: 0x497F8F, offset: 0x497F8F, size: 0x8, addend: 0x0, symName: __ZN5Eigen8internal42call_restricted_packet_assignment_no_aliasINS_6MatrixIdLin1ELin1ELi0ELin1ELin1EEENS_7ProductINS_9TransposeIKS3_EES3_Li1EEENS0_9assign_opIddEEEEvRT_RKT0_RKT1_, symObjAddr: 0x222B0, symBinAddr: 0x1000232D0, symSize: 0x2C0 }
  - { offsetInCU: 0x49AE80, offset: 0x49AE80, size: 0x8, addend: 0x0, symName: __ZN5Eigen8internal37evaluateProductBlockingSizesHeuristicIddLi4ElEEvRT2_S3_S3_S2_, symObjAddr: 0x21DB0, symBinAddr: 0x100022DD0, symSize: 0x3F0 }
  - { offsetInCU: 0x49AE88, offset: 0x49AE88, size: 0x8, addend: 0x0, symName: __ZNK5Eigen18TriangularViewImplINS_3RefINS_6MatrixIdLin1ELin1ELi0ELin1ELin1EEELi0ENS_11OuterStrideILin1EEEEELj5ENS_5DenseEE12solveInPlaceILi1ES6_EEvRKNS_10MatrixBaseIT0_EE, symObjAddr: 0x221A0, symBinAddr: 0x1000231C0, symSize: 0x110 }
  - { offsetInCU: 0x49B4CD, offset: 0x49B4CD, size: 0x8, addend: 0x0, symName: __ZN5Eigen8internal37evaluateProductBlockingSizesHeuristicIddLi4ElEEvRT2_S3_S3_S2_, symObjAddr: 0x21DB0, symBinAddr: 0x100022DD0, symSize: 0x3F0 }
  - { offsetInCU: 0x49B4D5, offset: 0x49B4D5, size: 0x8, addend: 0x0, symName: __ZN5Eigen8internal37evaluateProductBlockingSizesHeuristicIddLi4ElEEvRT2_S3_S3_S2_, symObjAddr: 0x21DB0, symBinAddr: 0x100022DD0, symSize: 0x3F0 }
  - { offsetInCU: 0x49B50B, offset: 0x49B50B, size: 0x8, addend: 0x0, symName: __ZN5Eigen8internal37evaluateProductBlockingSizesHeuristicIddLi4ElEEvRT2_S3_S3_S2_, symObjAddr: 0x21DB0, symBinAddr: 0x100022DD0, symSize: 0x3F0 }
  - { offsetInCU: 0x49B513, offset: 0x49B513, size: 0x8, addend: 0x0, symName: __ZN5Eigen8internal37evaluateProductBlockingSizesHeuristicIddLi4ElEEvRT2_S3_S3_S2_, symObjAddr: 0x21DB0, symBinAddr: 0x100022DD0, symSize: 0x3F0 }
  - { offsetInCU: 0x49B759, offset: 0x49B759, size: 0x8, addend: 0x0, symName: __ZN5Eigen8internal32product_triangular_matrix_matrixIdlLi6ELb1ELi1ELb0ELi0ELb0ELi0ELi1ELi0EE3runElllPKdlS4_lPdllRS3_RNS0_15level3_blockingIddEE, symObjAddr: 0x21650, symBinAddr: 0x100022670, symSize: 0x760 }
  - { offsetInCU: 0x49B761, offset: 0x49B761, size: 0x8, addend: 0x0, symName: __ZN5Eigen8internal37evaluateProductBlockingSizesHeuristicIddLi4ElEEvRT2_S3_S3_S2_, symObjAddr: 0x21DB0, symBinAddr: 0x100022DD0, symSize: 0x3F0 }
  - { offsetInCU: 0x49E055, offset: 0x49E055, size: 0x8, addend: 0x0, symName: __ZN5Eigen8internal20generic_product_implINS_3RefINS_6MatrixIdLin1ELin1ELi0ELin1ELin1EEELi0ENS_11OuterStrideILin1EEEEES7_NS_10DenseShapeES8_Li8EE13scaleAndAddToIS7_EEvRT_RKS7_SE_RKd, symObjAddr: 0x228E4, symBinAddr: 0x100023904, symSize: 0x36C }
  - { offsetInCU: 0x49E05D, offset: 0x49E05D, size: 0x8, addend: 0x0, symName: __ZN5Eigen8internal15partial_lu_implIdLi0EiLin1EE10blocked_luEllPdlPiRil, symObjAddr: 0x22C50, symBinAddr: 0x100023C70, symSize: 0xE40 }
  - { offsetInCU: 0x4A2501, offset: 0x4A2501, size: 0x8, addend: 0x0, symName: __ZN5Eigen8internal29general_matrix_matrix_productIldLi0ELb0EdLi1ELb0ELi0ELi1EE3runElllPKdlS4_lPdlldRNS0_15level3_blockingIddEEPNS0_16GemmParallelInfoIlEE, symObjAddr: 0x1DA10, symBinAddr: 0x10001EA30, symSize: 0x904 }
  - { offsetInCU: 0x4A2509, offset: 0x4A2509, size: 0x8, addend: 0x0, symName: __ZN5Eigen8internal16parallelize_gemmILb1ENS0_12gemm_functorIdlNS0_29general_matrix_matrix_productIldLi0ELb0EdLi1ELb0ELi0ELi1EEENS_6MatrixIdLin1ELin1ELi0ELin1ELin1EEENS_9TransposeIKS6_EES6_NS0_19gemm_blocking_spaceILi0EddLin1ELin1ELin1ELi1ELb0EEEEElEEvRKT0_T1_SG_SG_b, symObjAddr: 0x1E314, symBinAddr: 0x10001F334, symSize: 0x370 }
  - { offsetInCU: 0x4A393C, offset: 0x4A393C, size: 0x8, addend: 0x0, symName: __ZN5Eigen8internal23triangular_solve_matrixIdlLi1ELi5ELb0ELi0ELi0ELi1EE3runEllPKdlPdllRNS0_15level3_blockingIddEE, symObjAddr: 0x1D290, symBinAddr: 0x10001E2B0, symSize: 0x780 }
  - { offsetInCU: 0x4A4FC4, offset: 0x4A4FC4, size: 0x8, addend: 0x0, symName: __ZN5Eigen8internal20generic_product_implINS_9TransposeIKNS_6MatrixIdLin1ELin1ELi0ELin1ELin1EEEEES4_NS_10DenseShapeES7_Li8EE13scaleAndAddToIS4_EEvRT_RKS6_RS5_RKd, symObjAddr: 0x24C34, symBinAddr: 0x100025C54, symSize: 0x58C }
  - { offsetInCU: 0x4A4FCC, offset: 0x4A4FCC, size: 0x8, addend: 0x0, symName: __ZN5Eigen8internal20generic_product_implINS_9TransposeIKNS_6MatrixIdLin1ELin1ELi0ELin1ELin1EEEEES4_NS_10DenseShapeES7_Li8EE6evalToIS4_EEvRT_RKS6_RS5_, symObjAddr: 0x251C0, symBinAddr: 0x1000261E0, symSize: 0xE0 }
  - { offsetInCU: 0x4A8406, offset: 0x4A8406, size: 0x8, addend: 0x0, symName: __ZN5Eigen8internal20generic_product_implINS_9TransposeIKNS_6MatrixIdLin1ELin1ELi0ELin1ELin1EEEEES4_NS_10DenseShapeES7_Li8EE6evalToIS4_EEvRT_RKS6_RS5_, symObjAddr: 0x251C0, symBinAddr: 0x1000261E0, symSize: 0xE0 }
  - { offsetInCU: 0x4A848E, offset: 0x4A848E, size: 0x8, addend: 0x0, symName: __ZN5Eigen8internal20generic_product_implINS_9TransposeIKNS_6MatrixIdLin1ELin1ELi0ELin1ELin1EEEEES4_NS_10DenseShapeES7_Li8EE6evalToIS4_EEvRT_RKS6_RS5_, symObjAddr: 0x251C0, symBinAddr: 0x1000261E0, symSize: 0xE0 }
  - { offsetInCU: 0x4A84C4, offset: 0x4A84C4, size: 0x8, addend: 0x0, symName: __ZN5Eigen8internal20generic_product_implINS_9TransposeIKNS_6MatrixIdLin1ELin1ELi0ELin1ELin1EEEEES4_NS_10DenseShapeES7_Li8EE6evalToIS4_EEvRT_RKS6_RS5_, symObjAddr: 0x251C0, symBinAddr: 0x1000261E0, symSize: 0xE0 }
  - { offsetInCU: 0x4A9AD8, offset: 0x4A9AD8, size: 0x8, addend: 0x0, symName: __ZN5Eigen8internal32product_triangular_matrix_matrixIdlLi5ELb1ELi0ELb0ELi0ELb0ELi0ELi1ELi0EE3runElllPKdlS4_lPdllRS3_RNS0_15level3_blockingIddEE, symObjAddr: 0x1CD44, symBinAddr: 0x10001DD64, symSize: 0x54C }
  - { offsetInCU: 0x4A9AE0, offset: 0x4A9AE0, size: 0x8, addend: 0x0, symName: __ZN5Eigen8internal23triangular_solve_matrixIdlLi1ELi5ELb0ELi0ELi0ELi1EE3runEllPKdlPdllRNS0_15level3_blockingIddEE, symObjAddr: 0x1D290, symBinAddr: 0x10001E2B0, symSize: 0x780 }
  - { offsetInCU: 0x4AC0B6, offset: 0x4AC0B6, size: 0x8, addend: 0x0, symName: __ZN5Eigen5BlockIKNS_9TransposeIKNS_6MatrixIdLin1ELin1ELi0ELin1ELin1EEEEELin1ELi1ELb0EEC1ERS6_l, symObjAddr: 0x1CCB4, symBinAddr: 0x10001DCD4, symSize: 0x90 }
  - { offsetInCU: 0x4AC0BE, offset: 0x4AC0BE, size: 0x8, addend: 0x0, symName: __ZN5Eigen8internal32product_triangular_matrix_matrixIdlLi5ELb1ELi0ELb0ELi0ELb0ELi0ELi1ELi0EE3runElllPKdlS4_lPdllRS3_RNS0_15level3_blockingIddEE, symObjAddr: 0x1CD44, symBinAddr: 0x10001DD64, symSize: 0x54C }
  - { offsetInCU: 0x4AE543, offset: 0x4AE543, size: 0x8, addend: 0x0, symName: __ZN5Eigen8internal40make_block_householder_triangular_factorINS_6MatrixIdLin1ELin1ELi1ELin1ELin1EEENS_5BlockINS2_IdLin1ELin1ELi0ELin1ELin1EEELin1ELin1ELb0EEENS4_IKNS2_IdLin1ELi1ELi0ELin1ELi1EEELin1ELi1ELb0EEEEEvRT_RKT0_RKT1_, symObjAddr: 0x1C490, symBinAddr: 0x10001D4B0, symSize: 0x824 }
  - { offsetInCU: 0x4AE54B, offset: 0x4AE54B, size: 0x8, addend: 0x0, symName: __ZN5Eigen5BlockIKNS_9TransposeIKNS_6MatrixIdLin1ELin1ELi0ELin1ELin1EEEEELin1ELi1ELb0EEC1ERS6_l, symObjAddr: 0x1CCB4, symBinAddr: 0x10001DCD4, symSize: 0x90 }
  - { offsetInCU: 0x4B10AC, offset: 0x4B10AC, size: 0x8, addend: 0x0, symName: __ZN5Eigen8internal40make_block_householder_triangular_factorINS_6MatrixIdLin1ELin1ELi1ELin1ELin1EEENS_5BlockINS2_IdLin1ELin1ELi0ELin1ELin1EEELin1ELin1ELb0EEENS_11VectorBlockIKNS2_IdLin1ELi1ELi0ELin1ELi1EEELin1EEEEEvRT_RKT0_RKT1_, symObjAddr: 0x1BC64, symBinAddr: 0x10001CC84, symSize: 0x82C }
  - { offsetInCU: 0x4B5707, offset: 0x4B5707, size: 0x8, addend: 0x0, symName: __ZNK5Eigen18TriangularViewImplINS_3RefINS_6MatrixIdLin1ELin1ELi0ELin1ELin1EEELi0ENS_11OuterStrideILin1EEEEELj5ENS_5DenseEE12solveInPlaceILi1ES6_EEvRKNS_10MatrixBaseIT0_EE, symObjAddr: 0x221A0, symBinAddr: 0x1000231C0, symSize: 0x110 }
  - { offsetInCU: 0x4B5F50, offset: 0x4B5F50, size: 0x8, addend: 0x0, symName: __ZN5Eigen5BlockINS_3RefINS_6MatrixIdLin1ELin1ELi0ELin1ELin1EEELi0ENS_11OuterStrideILin1EEEEELin1ELin1ELb0EEC1ERS6_llll, symObjAddr: 0x1BBB0, symBinAddr: 0x10001CBD0, symSize: 0xB4 }
  - { offsetInCU: 0x4B5F58, offset: 0x4B5F58, size: 0x8, addend: 0x0, symName: __ZN5Eigen8internal40make_block_householder_triangular_factorINS_6MatrixIdLin1ELin1ELi1ELin1ELin1EEENS_5BlockINS2_IdLin1ELin1ELi0ELin1ELin1EEELin1ELin1ELb0EEENS_11VectorBlockIKNS2_IdLin1ELi1ELi0ELin1ELi1EEELin1EEEEEvRT_RKT0_RKT1_, symObjAddr: 0x1BC64, symBinAddr: 0x10001CC84, symSize: 0x82C }
  - { offsetInCU: 0x4B8161, offset: 0x4B8161, size: 0x8, addend: 0x0, symName: __ZN5Eigen8internal20generic_product_implINS_7ProductINS_6MatrixIdLin1ELin1ELi0ELin1ELin1EEES4_Li0EEENS_9TransposeIKS4_EENS_10DenseShapeES9_Li8EE13scaleAndAddToINS3_IdLin1ELin1ELi1ELin1ELin1EEEEEvRT_RKS5_RKS8_RKd, symObjAddr: 0x1FE80, symBinAddr: 0x100020EA0, symSize: 0x6F0 }
  - { offsetInCU: 0x4BC304, offset: 0x4BC304, size: 0x8, addend: 0x0, symName: __ZN5Eigen8internal35apply_block_householder_on_the_leftINS_5BlockINS_6MatrixIdLin1ELin1ELi0ELin1ELin1EEELin1ELin1ELb0EEES5_NS_11VectorBlockIKNS3_IdLin1ELi1ELi0ELin1ELi1EEELin1EEEEEvRT_RKT0_RKT1_b, symObjAddr: 0x26290, symBinAddr: 0x1000272B0, symSize: 0x790 }
  - { offsetInCU: 0x4C15A6, offset: 0x4C15A6, size: 0x8, addend: 0x0, symName: __ZN5Eigen8internal20generic_product_implINS_6MatrixIdLin1ELin1ELi0ELin1ELin1EEENS_9TransposeIKS3_EENS_10DenseShapeES7_Li8EE13scaleAndAddToIS3_EEvRT_RS5_RKS6_RKd, symObjAddr: 0x1E684, symBinAddr: 0x10001F6A4, symSize: 0x50C }
  - { offsetInCU: 0x4C405D, offset: 0x4C405D, size: 0x8, addend: 0x0, symName: __ZN5Eigen8internal15partial_lu_implIdLi0EiLin1EE12unblocked_luERNS_3RefINS_6MatrixIdLin1ELin1ELi0ELin1ELin1EEELi0ENS_11OuterStrideILin1EEEEEPiRi, symObjAddr: 0x19E04, symBinAddr: 0x10001AE24, symSize: 0x89C }
  - { offsetInCU: 0x4C4065, offset: 0x4C4065, size: 0x8, addend: 0x0, symName: __ZN5Eigen8internal16parallelize_gemmILb1ENS0_12gemm_functorIdlNS0_29general_matrix_matrix_productIldLi0ELb0EdLi0ELb0ELi0ELi1EEENS_6MatrixIdLin1ELin1ELi0ELin1ELin1EEENS_5BlockIS6_Lin1ELin1ELb1EEES6_NS0_19gemm_blocking_spaceILi0EddLin1ELin1ELin1ELi1ELb0EEEEElEEvRKT0_T1_SF_SF_b, symObjAddr: 0x1A6A0, symBinAddr: 0x10001B6C0, symSize: 0x380 }
  - { offsetInCU: 0x4C7A13, offset: 0x4C7A13, size: 0x8, addend: 0x0, symName: __ZN5Eigen8internal17product_evaluatorINS_7ProductINS_6MatrixIdLin1ELin1ELi0ELin1ELin1EEES4_Li0EEELi8ENS_10DenseShapeES6_ddEC2ERKS5_, symObjAddr: 0x19D10, symBinAddr: 0x10001AD30, symSize: 0xF4 }
  - { offsetInCU: 0x4C7A1B, offset: 0x4C7A1B, size: 0x8, addend: 0x0, symName: __ZN5Eigen8internal15partial_lu_implIdLi0EiLin1EE12unblocked_luERNS_3RefINS_6MatrixIdLin1ELin1ELi0ELin1ELin1EEELi0ENS_11OuterStrideILin1EEEEEPiRi, symObjAddr: 0x19E04, symBinAddr: 0x10001AE24, symSize: 0x89C }
  - { offsetInCU: 0x4C8256, offset: 0x4C8256, size: 0x8, addend: 0x0, symName: __ZN5Eigen8internal15partial_lu_implIdLi0EiLin1EE12unblocked_luERNS_3RefINS_6MatrixIdLin1ELin1ELi0ELin1ELin1EEELi0ENS_11OuterStrideILin1EEEEEPiRi, symObjAddr: 0x19E04, symBinAddr: 0x10001AE24, symSize: 0x89C }
  - { offsetInCU: 0x4C827E, offset: 0x4C827E, size: 0x8, addend: 0x0, symName: __ZN5Eigen8internal15partial_lu_implIdLi0EiLin1EE12unblocked_luERNS_3RefINS_6MatrixIdLin1ELin1ELi0ELin1ELin1EEELi0ENS_11OuterStrideILin1EEEEEPiRi, symObjAddr: 0x19E04, symBinAddr: 0x10001AE24, symSize: 0x89C }
  - { offsetInCU: 0x4C82A6, offset: 0x4C82A6, size: 0x8, addend: 0x0, symName: __ZN5Eigen8internal15partial_lu_implIdLi0EiLin1EE12unblocked_luERNS_3RefINS_6MatrixIdLin1ELin1ELi0ELin1ELin1EEELi0ENS_11OuterStrideILin1EEEEEPiRi, symObjAddr: 0x19E04, symBinAddr: 0x10001AE24, symSize: 0x89C }
  - { offsetInCU: 0x4CAB2E, offset: 0x4CAB2E, size: 0x8, addend: 0x0, symName: __ZN5Eigen8internal20generic_product_implINS_6MatrixIdLin1ELin1ELi0ELin1ELin1EEENS_5BlockIS3_Lin1ELin1ELb1EEENS_10DenseShapeES6_Li8EE13scaleAndAddToIS3_EEvRT_RKS3_RKS5_RKd, symObjAddr: 0x1AA20, symBinAddr: 0x10001BA40, symSize: 0x510 }
  - { offsetInCU: 0x4CCDD3, offset: 0x4CCDD3, size: 0x8, addend: 0x0, symName: __ZNK5Eigen19HouseholderSequenceINS_6MatrixIdLin1ELin1ELi0ELin1ELin1EEENS1_IdLin1ELi1ELi0ELin1ELi1EEELi1EE18applyThisOnTheLeftIS2_S3_EEvRT_RT0_b, symObjAddr: 0x26A20, symBinAddr: 0x100027A40, symSize: 0x5E4 }
  - { offsetInCU: 0x4CCDDB, offset: 0x4CCDDB, size: 0x8, addend: 0x0, symName: __ZNK5Eigen19HouseholderSequenceINS_6MatrixIdLin1ELin1ELi0ELin1ELin1EEENS1_IdLin1ELi1ELi0ELin1ELi1EEELi1EE6evalToIS2_S3_EEvRT_RT0_, symObjAddr: 0x27004, symBinAddr: 0x100028024, symSize: 0x92C }
  - { offsetInCU: 0x4CE5DD, offset: 0x4CE5DD, size: 0x8, addend: 0x0, symName: __ZN5Eigen10MatrixBaseINS_5BlockINS_6MatrixIdLin1ELin1ELi0ELin1ELin1EEELin1ELin1ELb0EEEE25applyHouseholderOnTheLeftINS1_IKS3_Lin1ELi1ELb0EEEEEvRKT_RKdPd, symObjAddr: 0x18020, symBinAddr: 0x100019040, symSize: 0x8B0 }
  - { offsetInCU: 0x4CE5E5, offset: 0x4CE5E5, size: 0x8, addend: 0x0, symName: __ZN5Eigen8internal29general_matrix_vector_productIldNS0_22const_blas_data_mapperIdlLi1EEELi1ELb0EdNS2_IdlLi0EEELb0ELi0EE3runEllRKS3_RKS4_Pdld, symObjAddr: 0x188D0, symBinAddr: 0x1000198F0, symSize: 0x5E0 }
  - { offsetInCU: 0x4D26FD, offset: 0x4D26FD, size: 0x8, addend: 0x0, symName: __ZN5Eigen10MatrixBaseINS_5BlockINS_6MatrixIdLin1ELin1ELi0ELin1ELin1EEELin1ELin1ELb0EEEE26applyHouseholderOnTheRightINS1_IKS3_Lin1ELi1ELb0EEEEEvRKT_RKdPd, symObjAddr: 0x17680, symBinAddr: 0x1000186A0, symSize: 0x9A0 }
  - { offsetInCU: 0x4D2705, offset: 0x4D2705, size: 0x8, addend: 0x0, symName: __ZN5Eigen10MatrixBaseINS_5BlockINS_6MatrixIdLin1ELin1ELi0ELin1ELin1EEELin1ELin1ELb0EEEE25applyHouseholderOnTheLeftINS1_IKS3_Lin1ELi1ELb0EEEEEvRKT_RKdPd, symObjAddr: 0x18020, symBinAddr: 0x100019040, symSize: 0x8B0 }
  - { offsetInCU: 0x4D786F, offset: 0x4D786F, size: 0x8, addend: 0x0, symName: __ZN5Eigen8internal15partial_lu_implIdLi0EiLin1EE10blocked_luEllPdlPiRil, symObjAddr: 0x22C50, symBinAddr: 0x100023C70, symSize: 0xE40 }
  - { offsetInCU: 0x4D7877, offset: 0x4D7877, size: 0x8, addend: 0x0, symName: __ZN5Eigen12PartialPivLUINS_6MatrixIdLin1ELin1ELi0ELin1ELin1EEEE7computeEv, symObjAddr: 0x23A90, symBinAddr: 0x100024AB0, symSize: 0x530 }
  - { offsetInCU: 0x4DE2D3, offset: 0x4DE2D3, size: 0x8, addend: 0x0, symName: __ZN5Eigen8internal29general_matrix_matrix_productIldLi0ELb0EdLi0ELb0ELi0ELi1EE3runElllPKdlS4_lPdlldRNS0_15level3_blockingIddEEPNS0_16GemmParallelInfoIlEE, symObjAddr: 0x16470, symBinAddr: 0x100017490, symSize: 0x934 }
  - { offsetInCU: 0x4DE2DB, offset: 0x4DE2DB, size: 0x8, addend: 0x0, symName: __ZN5Eigen8internal16parallelize_gemmILb1ENS0_12gemm_functorIdlNS0_29general_matrix_matrix_productIldLi0ELb0EdLi0ELb0ELi0ELi1EEENS_6MatrixIdLin1ELin1ELi0ELin1ELin1EEES6_S6_NS0_19gemm_blocking_spaceILi0EddLin1ELin1ELin1ELi1ELb0EEEEElEEvRKT0_T1_SD_SD_b, symObjAddr: 0x16DA4, symBinAddr: 0x100017DC4, symSize: 0x36C }
  - { offsetInCU: 0x4DF055, offset: 0x4DF055, size: 0x8, addend: 0x0, symName: __ZN5Eigen8internal37evaluateProductBlockingSizesHeuristicIddLi1ElEEvRT2_S3_S3_S2_, symObjAddr: 0x16080, symBinAddr: 0x1000170A0, symSize: 0x3F0 }
  - { offsetInCU: 0x4DF6A0, offset: 0x4DF6A0, size: 0x8, addend: 0x0, symName: __ZN5Eigen8internal37evaluateProductBlockingSizesHeuristicIddLi1ElEEvRT2_S3_S3_S2_, symObjAddr: 0x16080, symBinAddr: 0x1000170A0, symSize: 0x3F0 }
  - { offsetInCU: 0x4DF6A8, offset: 0x4DF6A8, size: 0x8, addend: 0x0, symName: __ZN5Eigen8internal37evaluateProductBlockingSizesHeuristicIddLi1ElEEvRT2_S3_S3_S2_, symObjAddr: 0x16080, symBinAddr: 0x1000170A0, symSize: 0x3F0 }
  - { offsetInCU: 0x4DF6DE, offset: 0x4DF6DE, size: 0x8, addend: 0x0, symName: __ZN5Eigen8internal37evaluateProductBlockingSizesHeuristicIddLi1ElEEvRT2_S3_S3_S2_, symObjAddr: 0x16080, symBinAddr: 0x1000170A0, symSize: 0x3F0 }
  - { offsetInCU: 0x4DF6E6, offset: 0x4DF6E6, size: 0x8, addend: 0x0, symName: __ZN5Eigen8internal37evaluateProductBlockingSizesHeuristicIddLi1ElEEvRT2_S3_S3_S2_, symObjAddr: 0x16080, symBinAddr: 0x1000170A0, symSize: 0x3F0 }
  - { offsetInCU: 0x4E08CE, offset: 0x4E08CE, size: 0x8, addend: 0x0, symName: __ZNK5Eigen19HouseholderSequenceINS_6MatrixIdLin1ELin1ELi0ELin1ELin1EEENS1_IdLin1ELi1ELi0ELin1ELi1EEELi1EE6evalToIS2_S3_EEvRT_RT0_, symObjAddr: 0x27004, symBinAddr: 0x100028024, symSize: 0x92C }
  - { offsetInCU: 0x4E08D6, offset: 0x4E08D6, size: 0x8, addend: 0x0, symName: __ZN5Eigen8internal30householder_qr_inplace_blockedINS_6MatrixIdLin1ELin1ELi0ELin1ELin1EEENS2_IdLin1ELi1ELi0ELin1ELi1EEEdLb1EE3runERS3_RS4_lPd, symObjAddr: 0x27930, symBinAddr: 0x100028950, symSize: 0x850 }
  - { offsetInCU: 0x4E90FB, offset: 0x4E90FB, size: 0x8, addend: 0x0, symName: __ZN5Eigen12PartialPivLUINS_6MatrixIdLin1ELin1ELi0ELin1ELin1EEEE7computeEv, symObjAddr: 0x23A90, symBinAddr: 0x100024AB0, symSize: 0x530 }
  - { offsetInCU: 0x4EEA12, offset: 0x4EEA12, size: 0x8, addend: 0x0, symName: __ZNK5Eigen10MatrixBaseINS_5BlockINS1_INS1_INS_6MatrixIdLin1ELin1ELi0ELin1ELin1EEELin1ELin1ELb0EEELin1ELi1ELb1EEELin1ELi1ELb0EEEE15makeHouseholderINS_11VectorBlockIS6_Lin1EEEEEvRT_RdSD_, symObjAddr: 0x15650, symBinAddr: 0x100016670, symSize: 0x450 }
  - { offsetInCU: 0x4EEA1A, offset: 0x4EEA1A, size: 0x8, addend: 0x0, symName: __ZN5Eigen10MatrixBaseINS_5BlockINS1_INS1_INS_6MatrixIdLin1ELin1ELi0ELin1ELin1EEELin1ELin1ELb0EEELin1ELi1ELb1EEELin1ELi1ELb0EEEE22makeHouseholderInPlaceERdS8_, symObjAddr: 0x15AA0, symBinAddr: 0x100016AC0, symSize: 0xA0 }
  - { offsetInCU: 0x4F26BE, offset: 0x4F26BE, size: 0x8, addend: 0x0, symName: __ZSt13__adjust_heapIPjljN9__gnu_cxx5__ops15_Iter_comp_iterIN4FMCA15ClusterSplitter17CoordinateCompareEEEEvT_T0_S9_T1_T2_, symObjAddr: 0x14800, symBinAddr: 0x100015820, symSize: 0x244 }
  - { offsetInCU: 0x4F26C6, offset: 0x4F26C6, size: 0x8, addend: 0x0, symName: __ZSt13__heap_selectIPjN9__gnu_cxx5__ops15_Iter_comp_iterIN4FMCA15ClusterSplitter17CoordinateCompareEEEEvT_S8_S8_T0_, symObjAddr: 0x14A44, symBinAddr: 0x100015A64, symSize: 0x11C }
  - { offsetInCU: 0x4F3768, offset: 0x4F3768, size: 0x8, addend: 0x0, symName: __ZN5Eigen8internal20generic_product_implINS_6MatrixIdLin1ELin1ELi0ELin1ELin1EEES3_NS_10DenseShapeES4_Li8EE13scaleAndAddToIS3_EEvRT_RKS3_SA_RKd, symObjAddr: 0x19630, symBinAddr: 0x10001A650, symSize: 0x490 }
  - { offsetInCU: 0x4F3770, offset: 0x4F3770, size: 0x8, addend: 0x0, symName: __ZN5Eigen6MatrixIdLin1ELin1ELi0ELin1ELin1EEC1INS_7ProductIS1_S1_Li0EEEEERKT_, symObjAddr: 0x19AC0, symBinAddr: 0x10001AAE0, symSize: 0xF4 }
  - { offsetInCU: 0x4F56F6, offset: 0x4F56F6, size: 0x8, addend: 0x0, symName: __ZN5Eigen8internal20generic_product_implINS_7ProductINS_9TransposeIKNS_6MatrixIdLin1ELin1ELi0ELin1ELin1EEEEES5_Li0EEES5_NS_10DenseShapeES9_Li8EE13scaleAndAddToIS5_EEvRT_RKS8_RS6_RKd, symObjAddr: 0x29B60, symBinAddr: 0x10002AB80, symSize: 0x8A4 }
  - { offsetInCU: 0x4F56FE, offset: 0x4F56FE, size: 0x8, addend: 0x0, symName: __ZN5Eigen15PlainObjectBaseINS_6MatrixIdLin1ELin1ELi0ELin1ELin1EEEEC2INS_7ProductINS5_INS_9TransposeIKS2_EES2_Li0EEES2_Li0EEEEERKNS_9DenseBaseIT_EE, symObjAddr: 0x2A404, symBinAddr: 0x10002B424, symSize: 0x6DC }
  - { offsetInCU: 0x4F8D8A, offset: 0x4F8D8A, size: 0x8, addend: 0x0, symName: __ZN5Eigen15PlainObjectBaseINS_6MatrixIdLin1ELin1ELi0ELin1ELin1EEEEC2INS_7ProductINS5_INS_9TransposeIKS2_EES2_Li0EEES2_Li0EEEEERKNS_9DenseBaseIT_EE, symObjAddr: 0x2A404, symBinAddr: 0x10002B424, symSize: 0x6DC }
  - { offsetInCU: 0x4F8DAE, offset: 0x4F8DAE, size: 0x8, addend: 0x0, symName: __ZN5Eigen15PlainObjectBaseINS_6MatrixIdLin1ELin1ELi0ELin1ELin1EEEEC2INS_7ProductINS5_INS_9TransposeIKS2_EES2_Li0EEES2_Li0EEEEERKNS_9DenseBaseIT_EE, symObjAddr: 0x2A404, symBinAddr: 0x10002B424, symSize: 0x6DC }
  - { offsetInCU: 0x4F8DD2, offset: 0x4F8DD2, size: 0x8, addend: 0x0, symName: __ZN5Eigen15PlainObjectBaseINS_6MatrixIdLin1ELin1ELi0ELin1ELin1EEEEC2INS_7ProductINS5_INS_9TransposeIKS2_EES2_Li0EEES2_Li0EEEEERKNS_9DenseBaseIT_EE, symObjAddr: 0x2A404, symBinAddr: 0x10002B424, symSize: 0x6DC }
  - { offsetInCU: 0x4F8DF6, offset: 0x4F8DF6, size: 0x8, addend: 0x0, symName: __ZN5Eigen15PlainObjectBaseINS_6MatrixIdLin1ELin1ELi0ELin1ELin1EEEEC2INS_7ProductINS5_INS_9TransposeIKS2_EES2_Li0EEES2_Li0EEEEERKNS_9DenseBaseIT_EE, symObjAddr: 0x2A404, symBinAddr: 0x10002B424, symSize: 0x6DC }
  - { offsetInCU: 0x4F8E28, offset: 0x4F8E28, size: 0x8, addend: 0x0, symName: __ZN5Eigen15PlainObjectBaseINS_6MatrixIdLin1ELin1ELi0ELin1ELin1EEEEC2INS_7ProductINS5_INS_9TransposeIKS2_EES2_Li0EEES2_Li0EEEEERKNS_9DenseBaseIT_EE, symObjAddr: 0x2A404, symBinAddr: 0x10002B424, symSize: 0x6DC }
  - { offsetInCU: 0x4F8E4C, offset: 0x4F8E4C, size: 0x8, addend: 0x0, symName: __ZN5Eigen15PlainObjectBaseINS_6MatrixIdLin1ELin1ELi0ELin1ELin1EEEEC2INS_7ProductINS5_INS_9TransposeIKS2_EES2_Li0EEES2_Li0EEEEERKNS_9DenseBaseIT_EE, symObjAddr: 0x2A404, symBinAddr: 0x10002B424, symSize: 0x6DC }
  - { offsetInCU: 0x4FAFA5, offset: 0x4FAFA5, size: 0x8, addend: 0x0, symName: __ZN5Eigen8internal40make_block_householder_triangular_factorINS_6MatrixIdLin1ELin1ELi1ELin1ELin1EEENS_5BlockINS2_IdLin1ELin1ELi0ELin1ELin1EEELin1ELin1ELb0EEENS4_INS2_IdLin1ELi1ELi0ELin1ELi1EEELin1ELi1ELb0EEEEEvRT_RKT0_RKT1_, symObjAddr: 0x13FC0, symBinAddr: 0x100014FE0, symSize: 0x840 }
  - { offsetInCU: 0x4FD9C5, offset: 0x4FD9C5, size: 0x8, addend: 0x0, symName: __ZN5Eigen10MatrixBaseINS_5BlockINS1_INS_6MatrixIdLin1ELin1ELi0ELin1ELin1EEELin1ELin1ELb0EEELin1ELin1ELb0EEEE25applyHouseholderOnTheLeftINS_11VectorBlockINS1_IS4_Lin1ELi1ELb1EEELin1EEEEEvRKT_RKdPd, symObjAddr: 0x13624, symBinAddr: 0x100014644, symSize: 0x99C }
  - { offsetInCU: 0x501B97, offset: 0x501B97, size: 0x8, addend: 0x0, symName: __ZN5Eigen10MatrixBaseINS_5BlockINS1_INS1_INS_6MatrixIdLin1ELin1ELi0ELin1ELin1EEELin1ELin1ELb0EEELin1ELi1ELb1EEELin1ELi1ELb0EEEE22makeHouseholderInPlaceERdS8_, symObjAddr: 0x15AA0, symBinAddr: 0x100016AC0, symSize: 0xA0 }
  - { offsetInCU: 0x505842, offset: 0x505842, size: 0x8, addend: 0x0, symName: __ZN5Eigen8internal32householder_qr_inplace_unblockedINS_5BlockINS_6MatrixIdLin1ELin1ELi0ELin1ELin1EEELin1ELin1ELb0EEENS2_INS3_IdLin1ELi1ELi0ELin1ELi1EEELin1ELi1ELb0EEEEEvRT_RT0_PNS8_6ScalarE, symObjAddr: 0x15B40, symBinAddr: 0x100016B60, symSize: 0x454 }
  - { offsetInCU: 0x50584A, offset: 0x50584A, size: 0x8, addend: 0x0, symName: __ZN5Eigen15PlainObjectBaseINS_6MatrixIdLin1ELin1ELi1ELin1ELin1EEEE6resizeEll, symObjAddr: 0x15F94, symBinAddr: 0x100016FB4, symSize: 0xEC }
  - { offsetInCU: 0x508B88, offset: 0x508B88, size: 0x8, addend: 0x0, symName: __ZSt13__heap_selectIPjN9__gnu_cxx5__ops15_Iter_comp_iterIN4FMCA15ClusterSplitter17CoordinateCompareEEEEvT_S8_S8_T0_, symObjAddr: 0x14A44, symBinAddr: 0x100015A64, symSize: 0x11C }
  - { offsetInCU: 0x50A851, offset: 0x50A851, size: 0x8, addend: 0x0, symName: __ZN5Eigen8internal30householder_qr_inplace_blockedINS_6MatrixIdLin1ELin1ELi0ELin1ELin1EEENS2_IdLin1ELi1ELi0ELin1ELi1EEEdLb1EE3runERS3_RS4_lPd, symObjAddr: 0x27930, symBinAddr: 0x100028950, symSize: 0x850 }
  - { offsetInCU: 0x50EE2C, offset: 0x50EE2C, size: 0x8, addend: 0x0, symName: __ZNSt6vectorIN4FMCA8TreeBaseINS0_13H2SampletTreeINS0_11ClusterTreeEEEEESaIS5_EE17_M_default_appendEm, symObjAddr: 0x11924, symBinAddr: 0x100012944, symSize: 0x3BC }
  - { offsetInCU: 0x5119A6, offset: 0x5119A6, size: 0x8, addend: 0x0, symName: __ZN5Eigen12PartialPivLUINS_6MatrixIdLin1ELin1ELi0ELin1ELin1EEEED1Ev, symObjAddr: 0x118F4, symBinAddr: 0x100012914, symSize: 0x30 }
  - { offsetInCU: 0x5119AE, offset: 0x5119AE, size: 0x8, addend: 0x0, symName: __ZNSt6vectorIN4FMCA8TreeBaseINS0_13H2SampletTreeINS0_11ClusterTreeEEEEESaIS5_EE17_M_default_appendEm, symObjAddr: 0x11924, symBinAddr: 0x100012944, symSize: 0x3BC }
  - { offsetInCU: 0x512681, offset: 0x512681, size: 0x8, addend: 0x0, symName: __ZSt16__insertion_sortIPjN9__gnu_cxx5__ops15_Iter_comp_iterIN4FMCA15ClusterSplitter17CoordinateCompareEEEEvT_S8_T0_, symObjAddr: 0x11750, symBinAddr: 0x100012770, symSize: 0x1A4 }
  - { offsetInCU: 0x512689, offset: 0x512689, size: 0x8, addend: 0x0, symName: __ZN5Eigen12PartialPivLUINS_6MatrixIdLin1ELin1ELi0ELin1ELin1EEEED1Ev, symObjAddr: 0x118F4, symBinAddr: 0x100012914, symSize: 0x30 }
  - { offsetInCU: 0x5135B4, offset: 0x5135B4, size: 0x8, addend: 0x0, symName: __ZN5Eigen6MatrixIdLin1ELin1ELi0ELin1ELin1EEC1INS_7ProductIS1_S1_Li0EEEEERKT_, symObjAddr: 0x19AC0, symBinAddr: 0x10001AAE0, symSize: 0xF4 }
  - { offsetInCU: 0x5135BC, offset: 0x5135BC, size: 0x8, addend: 0x0, symName: __ZN5Eigen8internal19gemv_dense_selectorILi2ELi1ELb1EE3runINS_9TransposeIKNS_6MatrixIdLin1ELin1ELi0ELin1ELin1EEEEENS4_IKNS5_IdLi1ELin1ELi1ELi1ELin1EEEEENS4_INS_5BlockIS6_Li1ELin1ELb0EEEEEEEvRKT_RKT0_RT1_RKNSL_6ScalarE.isra.0, symObjAddr: 0x19BB4, symBinAddr: 0x10001ABD4, symSize: 0x15C }
  - { offsetInCU: 0x51565F, offset: 0x51565F, size: 0x8, addend: 0x0, symName: __ZN4FMCA8internal23evalLegendrePolynomialsIN5Eigen13MatrixWrapperIKNS2_13CwiseBinaryOpINS2_8internal18scalar_quotient_opIddEEKNS2_12ArrayWrapperIKNS4_INS5_20scalar_difference_opIddEEKNS2_5BlockIKNS2_6MatrixIdLin1ELin1ELi0ELin1ELin1EEELin1ELi1ELb1EEESG_EEEEKNS8_ISG_EEEEEEEESD_jRKNS2_10MatrixBaseIT_EE, symObjAddr: 0x10360, symBinAddr: 0x100011380, symSize: 0xDB0 }
  - { offsetInCU: 0x515667, offset: 0x515667, size: 0x8, addend: 0x0, symName: __ZNK4FMCA14NystromMomentsINS_23TotalDegreeInterpolatorEE13moment_matrixINS_13H2SampletTreeINS_11ClusterTreeEEEEEN5Eigen6MatrixIdLin1ELin1ELi0ELin1ELin1EEERKNS_15ClusterTreeBaseIT_EE, symObjAddr: 0x11110, symBinAddr: 0x100012130, symSize: 0x640 }
  - { offsetInCU: 0x51C0C7, offset: 0x51C0C7, size: 0x8, addend: 0x0, symName: __ZSt16__introsort_loopIPjlN9__gnu_cxx5__ops15_Iter_comp_iterIN4FMCA15ClusterSplitter17CoordinateCompareEEEEvT_S8_T0_T1_, symObjAddr: 0x14B60, symBinAddr: 0x100015B80, symSize: 0x350 }
  - { offsetInCU: 0x51E852, offset: 0x51E852, size: 0x8, addend: 0x0, symName: __ZNSt6vectorIjSaIjEE17_M_realloc_insertIJjEEEvN9__gnu_cxx17__normal_iteratorIPjS1_EEDpOT_, symObjAddr: 0xF520, symBinAddr: 0x100010540, symSize: 0x170 }
  - { offsetInCU: 0x51E85A, offset: 0x51E85A, size: 0x8, addend: 0x0, symName: __ZN4FMCA8internal18RandomTreeAccessorINS_13H2SampletTreeINS_11ClusterTreeEEEE4initERKNS_8TreeBaseIS4_EEj, symObjAddr: 0xF690, symBinAddr: 0x1000106B0, symSize: 0xAF4 }
  - { offsetInCU: 0x51F92F, offset: 0x51F92F, size: 0x8, addend: 0x0, symName: __ZN4FMCA13SampletHelper21monomialMomentShifterIN5Eigen6MatrixIdLin1ELin1ELi0ELin1ELin1EEENS_13MultiIndexSetILNS_12IndexSetTypeE1EEES4_EES4_RKNS2_10MatrixBaseIT_EERKT0_RKNS8_IT1_EE, symObjAddr: 0xF000, symBinAddr: 0x100010020, symSize: 0x520 }
  - { offsetInCU: 0x521AD2, offset: 0x521AD2, size: 0x8, addend: 0x0, symName: __ZNSt6vectorIN5Eigen6MatrixIdLin1ELin1ELi0ELin1ELin1EEESaIS2_EE17_M_realloc_insertIJS2_EEEvN9__gnu_cxx17__normal_iteratorIPS2_S4_EEDpOT_, symObjAddr: 0xEE20, symBinAddr: 0x10000FE40, symSize: 0x1E0 }
  - { offsetInCU: 0x522BF9, offset: 0x522BF9, size: 0x8, addend: 0x0, symName: __ZN4FMCA8internal23evalLegendrePolynomialsIN5Eigen13MatrixWrapperIKNS2_13CwiseBinaryOpINS2_8internal13scalar_sum_opIddEEKNS4_INS5_18scalar_quotient_opIddEEKNS4_INS5_17scalar_product_opIddEEKNS2_12ArrayWrapperIKNS2_5BlockIKNS2_6MatrixIdLin1ELin1ELi0ELin1ELin1EEELin1ELi1ELb1EEEEESK_EESK_EEKNS4_IS9_KNS4_INS5_20scalar_difference_opIddEESK_SK_EESK_EEEEEEEESF_jRKNS2_10MatrixBaseIT_EE, symObjAddr: 0xDE54, symBinAddr: 0x10000EE74, symSize: 0xFCC }
  - { offsetInCU: 0x522C01, offset: 0x522C01, size: 0x8, addend: 0x0, symName: __ZNSt6vectorIN5Eigen6MatrixIdLin1ELin1ELi0ELin1ELin1EEESaIS2_EE17_M_realloc_insertIJS2_EEEvN9__gnu_cxx17__normal_iteratorIPS2_S4_EEDpOT_, symObjAddr: 0xEE20, symBinAddr: 0x10000FE40, symSize: 0x1E0 }
  - { offsetInCU: 0x52A7AE, offset: 0x52A7AE, size: 0x8, addend: 0x0, symName: __ZN5Eigen15PlainObjectBaseINS_6MatrixIdLin1ELin1ELi0ELin1ELin1EEEEC2INS_7ProductINS5_INS_9TransposeIKS2_EES2_Li0EEES2_Li0EEEEERKNS_9DenseBaseIT_EE, symObjAddr: 0x2A404, symBinAddr: 0x10002B424, symSize: 0x6DC }
  - { offsetInCU: 0x52DFC0, offset: 0x52DFC0, size: 0x8, addend: 0x0, symName: __ZNSt6vectorIN4FMCA8internal34SampletMatrixCompressorUnsymmetricINS0_13H2SampletTreeINS0_11ClusterTreeEEEE3ijpESaIS7_EE17_M_realloc_insertIJS7_EEEvN9__gnu_cxx17__normal_iteratorIPS7_S9_EEDpOT_, symObjAddr: 0xD9A4, symBinAddr: 0x10000E9C4, symSize: 0x14C }
  - { offsetInCU: 0x52E9B7, offset: 0x52E9B7, size: 0x8, addend: 0x0, symName: __ZNSt6vectorIPKN4FMCA13H2SampletTreeINS0_11ClusterTreeEEESaIS5_EE17_M_realloc_insertIJS5_EEEvN9__gnu_cxx17__normal_iteratorIPS5_S7_EEDpOT_, symObjAddr: 0xD834, symBinAddr: 0x10000E854, symSize: 0x170 }
  - { offsetInCU: 0x52E9BF, offset: 0x52E9BF, size: 0x8, addend: 0x0, symName: __ZNSt6vectorIN4FMCA8internal34SampletMatrixCompressorUnsymmetricINS0_13H2SampletTreeINS0_11ClusterTreeEEEE3ijpESaIS7_EE17_M_realloc_insertIJS7_EEEvN9__gnu_cxx17__normal_iteratorIPS7_S9_EEDpOT_, symObjAddr: 0xD9A4, symBinAddr: 0x10000E9C4, symSize: 0x14C }
  - { offsetInCU: 0x52FA57, offset: 0x52FA57, size: 0x8, addend: 0x0, symName: __ZNK4FMCA21NystromSampletMomentsINS_20MonomialInterpolatorEE13moment_matrixINS_13H2SampletTreeINS_11ClusterTreeEEEEEN5Eigen6MatrixIdLin1ELin1ELi0ELin1ELin1EEERKNS_15ClusterTreeBaseIT_EE, symObjAddr: 0xD090, symBinAddr: 0x10000E0B0, symSize: 0x7A4 }
  - { offsetInCU: 0x52FA5F, offset: 0x52FA5F, size: 0x8, addend: 0x0, symName: __ZNSt6vectorIPKN4FMCA13H2SampletTreeINS0_11ClusterTreeEEESaIS5_EE17_M_realloc_insertIJS5_EEEvN9__gnu_cxx17__normal_iteratorIPS5_S7_EEDpOT_, symObjAddr: 0xD834, symBinAddr: 0x10000E854, symSize: 0x170 }
  - { offsetInCU: 0x53320B, offset: 0x53320B, size: 0x8, addend: 0x0, symName: __ZNK4FMCA14NystromMomentsINS_23TotalDegreeInterpolatorEE13moment_matrixINS_13H2SampletTreeINS_11ClusterTreeEEEEEN5Eigen6MatrixIdLin1ELin1ELi0ELin1ELin1EEERKNS_15ClusterTreeBaseIT_EE, symObjAddr: 0x11110, symBinAddr: 0x100012130, symSize: 0x640 }
  - { offsetInCU: 0x533213, offset: 0x533213, size: 0x8, addend: 0x0, symName: __ZSt16__insertion_sortIPjN9__gnu_cxx5__ops15_Iter_comp_iterIN4FMCA15ClusterSplitter17CoordinateCompareEEEEvT_S8_T0_, symObjAddr: 0x11750, symBinAddr: 0x100012770, symSize: 0x1A4 }
  - { offsetInCU: 0x536110, offset: 0x536110, size: 0x8, addend: 0x0, symName: __ZN4FMCA8internal22ClusterTreeInitializerINS_11ClusterTreeEE16shrinkToFit_implINS_13H2SampletTreeIS2_EEEEvRNS_15ClusterTreeBaseIT_EERKN5Eigen6MatrixIdLin1ELin1ELi0ELin1ELin1EEE, symObjAddr: 0x11E44, symBinAddr: 0x100012E64, symSize: 0x17E0 }
  - { offsetInCU: 0x536118, offset: 0x536118, size: 0x8, addend: 0x0, symName: __ZN5Eigen10MatrixBaseINS_5BlockINS1_INS_6MatrixIdLin1ELin1ELi0ELin1ELin1EEELin1ELin1ELb0EEELin1ELin1ELb0EEEE25applyHouseholderOnTheLeftINS_11VectorBlockINS1_IS4_Lin1ELi1ELb1EEELin1EEEEEvRKT_RKdPd, symObjAddr: 0x13624, symBinAddr: 0x100014644, symSize: 0x99C }
  - { offsetInCU: 0x53F02B, offset: 0x53F02B, size: 0x8, addend: 0x0, symName: __ZNSt8_Rb_treeISt6vectorIjSaIjEES2_St9_IdentityIS2_EN4FMCA12FMCA_CompareIS2_EESaIS2_EE16_M_insert_uniqueIRKS2_EESt4pairISt17_Rb_tree_iteratorIS2_EbEOT_, symObjAddr: 0xC150, symBinAddr: 0x10000D170, symSize: 0x4B0 }
  - { offsetInCU: 0x54132C, offset: 0x54132C, size: 0x8, addend: 0x0, symName: __ZN5Eigen5BlockINS_6MatrixIdLin1ELin1ELi0ELin1ELin1EEELin1ELin1ELb0EEC1ERS2_llll, symObjAddr: 0xBCD0, symBinAddr: 0x10000CCF0, symSize: 0xB0 }
  - { offsetInCU: 0x541334, offset: 0x541334, size: 0x8, addend: 0x0, symName: __ZN5Eigen8internal29conservative_resize_like_implINS_6MatrixIdLin1ELin1ELi0ELin1ELin1EEES3_Lb0EE3runERNS_9DenseBaseIS3_EEll, symObjAddr: 0xBD80, symBinAddr: 0x10000CDA0, symSize: 0x3D0 }
  - { offsetInCU: 0x541B63, offset: 0x541B63, size: 0x8, addend: 0x0, symName: __ZNK4FMCA27unsymmetricNystromEvaluatorINS_14NystromMomentsINS_23TotalDegreeInterpolatorEEENS_10GradKernelEE18interpolate_kernelINS_13H2SampletTreeINS_11ClusterTreeEEEEEvRKNS_15ClusterTreeBaseIT_EESE_PN5Eigen6MatrixIdLin1ELin1ELi0ELin1ELin1EEE, symObjAddr: 0x20570, symBinAddr: 0x100021590, symSize: 0xDE0 }
  - { offsetInCU: 0x541B6B, offset: 0x541B6B, size: 0x8, addend: 0x0, symName: __ZN5Eigen8internal16parallelize_gemmILb1ENS0_12gemm_functorIdlNS0_29general_matrix_matrix_productIldLi0ELb0EdLi1ELb0ELi0ELi1EEENS_6MatrixIdLin1ELin1ELi0ELin1ELin1EEENS_9TransposeIKS6_EES6_NS0_19gemm_blocking_spaceILi0EddLin1ELin1ELin1ELi1ELb0EEEEElEEvRKT0_T1_SG_SG_b._omp_fn.0, symObjAddr: 0x21350, symBinAddr: 0x100022370, symSize: 0x180 }
  - { offsetInCU: 0x54894D, offset: 0x54894D, size: 0x8, addend: 0x0, symName: __ZN5Eigen8internal29conservative_resize_like_implINS_6MatrixIdLin1ELin1ELi0ELin1ELin1EEES3_Lb0EE3runERNS_9DenseBaseIS3_EEll, symObjAddr: 0xBD80, symBinAddr: 0x10000CDA0, symSize: 0x3D0 }
  - { offsetInCU: 0x548955, offset: 0x548955, size: 0x8, addend: 0x0, symName: __ZNSt8_Rb_treeISt6vectorIjSaIjEES2_St9_IdentityIS2_EN4FMCA12FMCA_CompareIS2_EESaIS2_EE16_M_insert_uniqueIRKS2_EESt4pairISt17_Rb_tree_iteratorIS2_EbEOT_, symObjAddr: 0xC150, symBinAddr: 0x10000D170, symSize: 0x4B0 }
  - { offsetInCU: 0x54A4B5, offset: 0x54A4B5, size: 0x8, addend: 0x0, symName: __ZN4FMCA15computeDistanceINS_13H2SampletTreeINS_11ClusterTreeEEES3_EEdRKNS_15ClusterTreeBaseIT_EERKNS4_IT0_EE, symObjAddr: 0xB350, symBinAddr: 0x10000C370, symSize: 0x620 }
  - { offsetInCU: 0x54A484, offset: 0x54A484, size: 0x8, addend: 0x0, symName: __ZN4FMCA15computeDistanceINS_13H2SampletTreeINS_11ClusterTreeEEES3_EEdRKNS_15ClusterTreeBaseIT_EERKNS4_IT0_EE, symObjAddr: 0xB350, symBinAddr: 0x10000C370, symSize: 0x620 }
  - { offsetInCU: 0x54A48C, offset: 0x54A48C, size: 0x8, addend: 0x0, symName: __ZN4FMCA15computeDistanceINS_13H2SampletTreeINS_11ClusterTreeEEES3_EEdRKNS_15ClusterTreeBaseIT_EERKNS4_IT0_EE, symObjAddr: 0xB350, symBinAddr: 0x10000C370, symSize: 0x620 }
  - { offsetInCU: 0x54A4AC, offset: 0x54A4AC, size: 0x8, addend: 0x0, symName: __ZN4FMCA15computeDistanceINS_13H2SampletTreeINS_11ClusterTreeEEES3_EEdRKNS_15ClusterTreeBaseIT_EERKNS4_IT0_EE, symObjAddr: 0xB350, symBinAddr: 0x10000C370, symSize: 0x620 }
  - { offsetInCU: 0x54A4B4, offset: 0x54A4B4, size: 0x8, addend: 0x0, symName: __ZN4FMCA15computeDistanceINS_13H2SampletTreeINS_11ClusterTreeEEES3_EEdRKNS_15ClusterTreeBaseIT_EERKNS4_IT0_EE, symObjAddr: 0xB350, symBinAddr: 0x10000C370, symSize: 0x620 }
  - { offsetInCU: 0x54A4D4, offset: 0x54A4D4, size: 0x8, addend: 0x0, symName: __ZN4FMCA15computeDistanceINS_13H2SampletTreeINS_11ClusterTreeEEES3_EEdRKNS_15ClusterTreeBaseIT_EERKNS4_IT0_EE, symObjAddr: 0xB350, symBinAddr: 0x10000C370, symSize: 0x620 }
  - { offsetInCU: 0x54A4DC, offset: 0x54A4DC, size: 0x8, addend: 0x0, symName: __ZN4FMCA15computeDistanceINS_13H2SampletTreeINS_11ClusterTreeEEES3_EEdRKNS_15ClusterTreeBaseIT_EERKNS4_IT0_EE, symObjAddr: 0xB350, symBinAddr: 0x10000C370, symSize: 0x620 }
  - { offsetInCU: 0x54F9D6, offset: 0x54F9D6, size: 0x8, addend: 0x0, symName: __ZNSt6vectorIS_IN4FMCA8internal34SampletMatrixCompressorUnsymmetricINS0_13H2SampletTreeINS0_11ClusterTreeEEEE3ijpESaIS7_EESaIS9_EE17_M_default_appendEm, symObjAddr: 0xB0D0, symBinAddr: 0x10000C0F0, symSize: 0x280 }
  - { offsetInCU: 0x550393, offset: 0x550393, size: 0x8, addend: 0x0, symName: __ZNSt6vectorISt3mapIjN5Eigen6MatrixIdLin1ELin1ELi0ELin1ELin1EEESt7greaterIjESaISt4pairIKjS3_EEESaISA_EE17_M_default_appendEm, symObjAddr: 0xAF00, symBinAddr: 0x10000BF20, symSize: 0x1D0 }
  - { offsetInCU: 0x5512FB, offset: 0x5512FB, size: 0x8, addend: 0x0, symName: __ZN4FMCA8internal13sampletMapperINS_13H2SampletTreeINS_11ClusterTreeEEEEEvRNS_15SampletTreeBaseIT_EE, symObjAddr: 0xA850, symBinAddr: 0x10000B870, symSize: 0x6B0 }
  - { offsetInCU: 0x551863, offset: 0x551863, size: 0x8, addend: 0x0, symName: __ZN4FMCA13H2SampletTreeINS_11ClusterTreeEE15computeSampletsINS_21NystromSampletMomentsINS_20MonomialInterpolatorEEEEEvRKT_, symObjAddr: 0x28180, symBinAddr: 0x1000291A0, symSize: 0x1104 }
  - { offsetInCU: 0x55186B, offset: 0x55186B, size: 0x8, addend: 0x0, symName: __ZN4FMCA13H2SampletTreeINS_11ClusterTreeEEC1INS_14NystromMomentsINS_23TotalDegreeInterpolatorEEENS_21NystromSampletMomentsINS_20MonomialInterpolatorEEEJRKN5Eigen6MatrixIdLin1ELin1ELi0ELin1ELin1EEEEEERKT_RKT0_jDpOT1_, symObjAddr: 0x29284, symBinAddr: 0x10002A2A4, symSize: 0x7B0 }
  - { offsetInCU: 0x55A582, offset: 0x55A582, size: 0x8, addend: 0x0, symName: __ZNSt17_Function_handlerIFddddEZN4FMCA10GradKernelC4ERKNSt7__cxx1112basic_stringIcSt11char_traitsIcESaIcEEEddiEUldddE_E9_M_invokeERKSt9_Any_dataOdSG_SG_, symObjAddr: 0x49E0, symBinAddr: 0x100005A00, symSize: 0x54 }
  - { offsetInCU: 0x55A58A, offset: 0x55A58A, size: 0x8, addend: 0x0, symName: __ZSt4endlIcSt11char_traitsIcEERSt13basic_ostreamIT_T0_ES6_.isra.0, symObjAddr: 0x4A34, symBinAddr: 0x100005A54, symSize: 0x6C }
  - { offsetInCU: 0x55ADA3, offset: 0x55ADA3, size: 0x8, addend: 0x0, symName: __ZN4FMCA8internal34SampletMatrixCompressorUnsymmetricINS_13H2SampletTreeINS_11ClusterTreeEEEE23recursivelyComputeBlockINS_27unsymmetricNystromEvaluatorINS_14NystromMomentsINS_23TotalDegreeInterpolatorEEENS_10GradKernelEEEEEN5Eigen6MatrixIdLin1ELin1ELi0ELin1ELin1EEERKS4_SH_RKT_, symObjAddr: 0x2AAE0, symBinAddr: 0x10002BB00, symSize: 0x14A4 }
  - { offsetInCU: 0x55ADAB, offset: 0x55ADAB, size: 0x8, addend: 0x0, symName: __ZN4FMCA8internal34SampletMatrixCompressorUnsymmetricINS_13H2SampletTreeINS_11ClusterTreeEEEE8compressINS_27unsymmetricNystromEvaluatorINS_14NystromMomentsINS_23TotalDegreeInterpolatorEEENS_10GradKernelEEEEEvRKT_._omp_fn.0, symObjAddr: 0x2BF84, symBinAddr: 0x10002CFA4, symSize: 0xE1C }
  - { offsetInCU: 0x565093, offset: 0x565093, size: 0x8, addend: 0x0, symName: __ZN4FMCA8internal18RandomTreeAccessorINS_13H2SampletTreeINS_11ClusterTreeEEEE4initERKNS_8TreeBaseIS4_EEj, symObjAddr: 0xF690, symBinAddr: 0x1000106B0, symSize: 0xAF4 }
  - { offsetInCU: 0x56509B, offset: 0x56509B, size: 0x8, addend: 0x0, symName: __ZN4FMCA8internal34SampletMatrixCompressorUnsymmetricINS_13H2SampletTreeINS_11ClusterTreeEEEE4initERKNS_15SampletTreeBaseIS4_EES9_dd, symObjAddr: 0x10184, symBinAddr: 0x1000111A4, symSize: 0x1DC }
  - { offsetInCU: 0x567A3E, offset: 0x567A3E, size: 0x8, addend: 0x0, symName: __ZN5Eigen15PlainObjectBaseINS_6MatrixIdLin1ELin1ELi0ELin1ELin1EEEEC2INS_13CwiseBinaryOpINS_8internal17scalar_product_opIddEEKNS_14CwiseNullaryOpINS6_18scalar_constant_opIdEEKNS_5ArrayIdLin1ELin1ELi0ELin1ELin1EEEEEKNS5_INS6_13scalar_sum_opIddEEKNS_12ArrayWrapperIKNS9_INS6_16scalar_random_opIdEES2_EEEESG_EEEEEERKNS_9DenseBaseIT_EE, symObjAddr: 0x99F0, symBinAddr: 0x10000AA10, symSize: 0x150 }
  - { offsetInCU: 0x567A46, offset: 0x567A46, size: 0x8, addend: 0x0, symName: __ZN5Eigen15PlainObjectBaseINS_6MatrixIdLin1ELi1ELi0ELin1ELi1EEEE6resizeEl, symObjAddr: 0x9B40, symBinAddr: 0x10000AB60, symSize: 0xA4 }
  - { offsetInCU: 0x5685F4, offset: 0x5685F4, size: 0x8, addend: 0x0, symName: __ZN4FMCA8internal23evalLegendrePolynomialsIN5Eigen5BlockINS2_6MatrixIdLin1ELin1ELi0ELin1ELin1EEELin1ELi1ELb1EEEEES5_jRKNS2_10MatrixBaseIT_EE, symObjAddr: 0x9BE4, symBinAddr: 0x10000AC04, symSize: 0xC6C }
  - { offsetInCU: 0x56D578, offset: 0x56D578, size: 0x8, addend: 0x0, symName: __ZN5Eigen5BlockINS_6MatrixIdLin1ELin1ELi0ELin1ELin1EEELin1ELi1ELb1EEC1ERS2_l, symObjAddr: 0x9970, symBinAddr: 0x10000A990, symSize: 0x80 }
  - { offsetInCU: 0x56D580, offset: 0x56D580, size: 0x8, addend: 0x0, symName: __ZN5Eigen15PlainObjectBaseINS_6MatrixIdLin1ELin1ELi0ELin1ELin1EEEEC2INS_13CwiseBinaryOpINS_8internal17scalar_product_opIddEEKNS_14CwiseNullaryOpINS6_18scalar_constant_opIdEEKNS_5ArrayIdLin1ELin1ELi0ELin1ELin1EEEEEKNS5_INS6_13scalar_sum_opIddEEKNS_12ArrayWrapperIKNS9_INS6_16scalar_random_opIdEES2_EEEESG_EEEEEERKNS_9DenseBaseIT_EE, symObjAddr: 0x99F0, symBinAddr: 0x10000AA10, symSize: 0x150 }
  - { offsetInCU: 0x56D904, offset: 0x56D904, size: 0x8, addend: 0x0, symName: __ZN5Eigen5BlockINS_6MatrixIdLin1ELin1ELi0ELin1ELin1EEELi1ELin1ELb0EEC1ERS2_l, symObjAddr: 0x98E4, symBinAddr: 0x10000A904, symSize: 0x8C }
  - { offsetInCU: 0x56E054, offset: 0x56E054, size: 0x8, addend: 0x0, symName: __ZN5Eigen5BlockIKNS_6MatrixIdLin1ELin1ELi0ELin1ELin1EEELin1ELi1ELb1EEC1ERS3_l, symObjAddr: 0x9864, symBinAddr: 0x10000A884, symSize: 0x80 }
  - { offsetInCU: 0x56E05C, offset: 0x56E05C, size: 0x8, addend: 0x0, symName: __ZN5Eigen5BlockINS_6MatrixIdLin1ELin1ELi0ELin1ELin1EEELi1ELin1ELb0EEC1ERS2_l, symObjAddr: 0x98E4, symBinAddr: 0x10000A904, symSize: 0x8C }
  - { offsetInCU: 0x56EA7D, offset: 0x56EA7D, size: 0x8, addend: 0x0, symName: __ZNSt6vectorIjSaIjEED1Ev, symObjAddr: 0x9760, symBinAddr: 0x10000A780, symSize: 0x10 }
  - { offsetInCU: 0x56EA85, offset: 0x56EA85, size: 0x8, addend: 0x0, symName: __ZN4FMCA8internal34SampletMatrixCompressorUnsymmetricINS_13H2SampletTreeINS_11ClusterTreeEEEE8compressINS_27unsymmetricNystromEvaluatorINS_14NystromMomentsINS_23TotalDegreeInterpolatorEEENS_10GradKernelEEEEEvRKT_, symObjAddr: 0x9770, symBinAddr: 0x10000A790, symSize: 0xF4 }
  - { offsetInCU: 0x56EA92, offset: 0x56EA92, size: 0x8, addend: 0x0, symName: __ZNSt6vectorIjSaIjEED1Ev, symObjAddr: 0x9760, symBinAddr: 0x10000A780, symSize: 0x10 }
  - { offsetInCU: 0x56ECF4, offset: 0x56ECF4, size: 0x8, addend: 0x0, symName: __ZNSt10unique_ptrIN4FMCA17H2SampletTreeNodeESt14default_deleteIS1_EED1Ev, symObjAddr: 0x9664, symBinAddr: 0x10000A684, symSize: 0xFC }
  - { offsetInCU: 0x56ECFC, offset: 0x56ECFC, size: 0x8, addend: 0x0, symName: __ZNSt6vectorIjSaIjEED1Ev, symObjAddr: 0x9760, symBinAddr: 0x10000A780, symSize: 0x10 }
  - { offsetInCU: 0x56F745, offset: 0x56F745, size: 0x8, addend: 0x0, symName: __ZNSt6vectorIN4FMCA8TreeBaseINS0_13H2SampletTreeINS0_11ClusterTreeEEEEESaIS5_EED1Ev, symObjAddr: 0x9530, symBinAddr: 0x10000A550, symSize: 0x134 }
  - { offsetInCU: 0x56F74D, offset: 0x56F74D, size: 0x8, addend: 0x0, symName: __ZNSt10unique_ptrIN4FMCA17H2SampletTreeNodeESt14default_deleteIS1_EED1Ev, symObjAddr: 0x9664, symBinAddr: 0x10000A684, symSize: 0xFC }
  - { offsetInCU: 0x57046F, offset: 0x57046F, size: 0x8, addend: 0x0, symName: __ZN4FMCA13H2SampletTreeINS_11ClusterTreeEEC1INS_14NystromMomentsINS_23TotalDegreeInterpolatorEEENS_21NystromSampletMomentsINS_20MonomialInterpolatorEEEJRKN5Eigen6MatrixIdLin1ELin1ELi0ELin1ELin1EEEEEERKT_RKT0_jDpOT1_, symObjAddr: 0x29284, symBinAddr: 0x10002A2A4, symSize: 0x7B0 }
  - { offsetInCU: 0x570477, offset: 0x570477, size: 0x8, addend: 0x0, symName: __ZN5Eigen8internal17product_evaluatorINS_7ProductINS_9TransposeIKNS_6MatrixIdLin1ELin1ELi0ELin1ELin1EEEEES5_Li0EEELi8ENS_10DenseShapeES9_ddEC2ERKS8_, symObjAddr: 0x29A34, symBinAddr: 0x10002AA54, symSize: 0x12C }
  - { offsetInCU: 0x57042E, offset: 0x57042E, size: 0x8, addend: 0x0, symName: __ZN4FMCA13H2SampletTreeINS_11ClusterTreeEEC1INS_14NystromMomentsINS_23TotalDegreeInterpolatorEEENS_21NystromSampletMomentsINS_20MonomialInterpolatorEEEJRKN5Eigen6MatrixIdLin1ELin1ELi0ELin1ELin1EEEEEERKT_RKT0_jDpOT1_, symObjAddr: 0x29284, symBinAddr: 0x10002A2A4, symSize: 0x7B0 }
  - { offsetInCU: 0x570456, offset: 0x570456, size: 0x8, addend: 0x0, symName: __ZN4FMCA13H2SampletTreeINS_11ClusterTreeEEC1INS_14NystromMomentsINS_23TotalDegreeInterpolatorEEENS_21NystromSampletMomentsINS_20MonomialInterpolatorEEEJRKN5Eigen6MatrixIdLin1ELin1ELi0ELin1ELin1EEEEEERKT_RKT0_jDpOT1_, symObjAddr: 0x29284, symBinAddr: 0x10002A2A4, symSize: 0x7B0 }
  - { offsetInCU: 0x57047E, offset: 0x57047E, size: 0x8, addend: 0x0, symName: __ZN4FMCA13H2SampletTreeINS_11ClusterTreeEEC1INS_14NystromMomentsINS_23TotalDegreeInterpolatorEEENS_21NystromSampletMomentsINS_20MonomialInterpolatorEEEJRKN5Eigen6MatrixIdLin1ELin1ELi0ELin1ELin1EEEEEERKT_RKT0_jDpOT1_, symObjAddr: 0x29284, symBinAddr: 0x10002A2A4, symSize: 0x7B0 }
  - { offsetInCU: 0x5704A6, offset: 0x5704A6, size: 0x8, addend: 0x0, symName: __ZN4FMCA13H2SampletTreeINS_11ClusterTreeEEC1INS_14NystromMomentsINS_23TotalDegreeInterpolatorEEENS_21NystromSampletMomentsINS_20MonomialInterpolatorEEEJRKN5Eigen6MatrixIdLin1ELin1ELi0ELin1ELin1EEEEEERKT_RKT0_jDpOT1_, symObjAddr: 0x29284, symBinAddr: 0x10002A2A4, symSize: 0x7B0 }
  - { offsetInCU: 0x5704CE, offset: 0x5704CE, size: 0x8, addend: 0x0, symName: __ZN4FMCA13H2SampletTreeINS_11ClusterTreeEEC1INS_14NystromMomentsINS_23TotalDegreeInterpolatorEEENS_21NystromSampletMomentsINS_20MonomialInterpolatorEEEJRKN5Eigen6MatrixIdLin1ELin1ELi0ELin1ELin1EEEEEERKT_RKT0_jDpOT1_, symObjAddr: 0x29284, symBinAddr: 0x10002A2A4, symSize: 0x7B0 }
  - { offsetInCU: 0x5704F2, offset: 0x5704F2, size: 0x8, addend: 0x0, symName: __ZN4FMCA13H2SampletTreeINS_11ClusterTreeEEC1INS_14NystromMomentsINS_23TotalDegreeInterpolatorEEENS_21NystromSampletMomentsINS_20MonomialInterpolatorEEEJRKN5Eigen6MatrixIdLin1ELin1ELi0ELin1ELin1EEEEEERKT_RKT0_jDpOT1_, symObjAddr: 0x29284, symBinAddr: 0x10002A2A4, symSize: 0x7B0 }
  - { offsetInCU: 0x570516, offset: 0x570516, size: 0x8, addend: 0x0, symName: __ZN4FMCA13H2SampletTreeINS_11ClusterTreeEEC1INS_14NystromMomentsINS_23TotalDegreeInterpolatorEEENS_21NystromSampletMomentsINS_20MonomialInterpolatorEEEJRKN5Eigen6MatrixIdLin1ELin1ELi0ELin1ELin1EEEEEERKT_RKT0_jDpOT1_, symObjAddr: 0x29284, symBinAddr: 0x10002A2A4, symSize: 0x7B0 }
  - { offsetInCU: 0x57053A, offset: 0x57053A, size: 0x8, addend: 0x0, symName: __ZN4FMCA13H2SampletTreeINS_11ClusterTreeEEC1INS_14NystromMomentsINS_23TotalDegreeInterpolatorEEENS_21NystromSampletMomentsINS_20MonomialInterpolatorEEEJRKN5Eigen6MatrixIdLin1ELin1ELi0ELin1ELin1EEEEEERKT_RKT0_jDpOT1_, symObjAddr: 0x29284, symBinAddr: 0x10002A2A4, symSize: 0x7B0 }
  - { offsetInCU: 0x572155, offset: 0x572155, size: 0x8, addend: 0x0, symName: __ZN4FMCA21NystromSampletMomentsINS_20MonomialInterpolatorEEC1ERKN5Eigen6MatrixIdLin1ELin1ELi0ELin1ELin1EEEj, symObjAddr: 0x2DDD4, symBinAddr: 0x10002EDF4, symSize: 0xA0C }
  - { offsetInCU: 0x5758BA, offset: 0x5758BA, size: 0x8, addend: 0x0, symName: __ZN4FMCA14NystromMomentsINS_23TotalDegreeInterpolatorEEC1ERKN5Eigen6MatrixIdLin1ELin1ELi0ELin1ELin1EEEj, symObjAddr: 0x2EF74, symBinAddr: 0x10002FF94, symSize: 0x7C }
  - { offsetInCU: 0x57627A, offset: 0x57627A, size: 0x8, addend: 0x0, symName: __ZNSt16_Sp_counted_baseILN9__gnu_cxx12_Lock_policyE2EE24_M_release_last_use_coldEv, symObjAddr: 0x7D30, symBinAddr: 0x100008D50, symSize: 0x60 }
  - { offsetInCU: 0x5769A8, offset: 0x5769A8, size: 0x8, addend: 0x0, symName: _main, symObjAddr: 0x31050, symBinAddr: 0x100030120, symSize: 0x420 }
  - { offsetInCU: 0x5769B0, offset: 0x5769B0, size: 0x8, addend: 0x0, symName: __GLOBAL__sub_I_test_Compression_time.cpp, symObjAddr: 0x31470, symBinAddr: 0x100030540, symSize: 0x3C }
  - { offsetInCU: 0x57817A, offset: 0x57817A, size: 0x8, addend: 0x0, symName: __ZN4FMCA8internal34SampletMatrixCompressorUnsymmetricINS_13H2SampletTreeINS_11ClusterTreeEEEED1Ev, symObjAddr: 0x7C10, symBinAddr: 0x100008C30, symSize: 0x120 }
  - { offsetInCU: 0x57912B, offset: 0x57912B, size: 0x8, addend: 0x0, symName: __ZN4FMCA20MonomialInterpolatorD1Ev, symObjAddr: 0x7B80, symBinAddr: 0x100008BA0, symSize: 0x90 }
  - { offsetInCU: 0x579899, offset: 0x579899, size: 0x8, addend: 0x0, symName: __ZN4FMCA23TotalDegreeInterpolatorD1Ev, symObjAddr: 0x7AF0, symBinAddr: 0x100008B10, symSize: 0x90 }
  - { offsetInCU: 0x579FF4, offset: 0x579FF4, size: 0x8, addend: 0x0, symName: __ZN4FMCA10GradKernelD1Ev, symObjAddr: 0x7AA4, symBinAddr: 0x100008AC4, symSize: 0x4C }
  - { offsetInCU: 0x57A2DE, offset: 0x57A2DE, size: 0x8, addend: 0x0, symName: __ZN4FMCA23TotalDegreeInterpolator4initEjj, symObjAddr: 0x2E7E0, symBinAddr: 0x10002F800, symSize: 0x794 }
  - { offsetInCU: 0x57A2E6, offset: 0x57A2E6, size: 0x8, addend: 0x0, symName: __ZN4FMCA14NystromMomentsINS_23TotalDegreeInterpolatorEEC1ERKN5Eigen6MatrixIdLin1ELin1ELi0ELin1ELin1EEEj, symObjAddr: 0x2EF74, symBinAddr: 0x10002FF94, symSize: 0x7C }
  - { offsetInCU: 0x57BC52, offset: 0x57BC52, size: 0x8, addend: 0x0, symName: __ZN4FMCA14NystromMomentsINS_23TotalDegreeInterpolatorEEC1ERKN5Eigen6MatrixIdLin1ELin1ELi0ELin1ELin1EEEj, symObjAddr: 0x2EF74, symBinAddr: 0x10002FF94, symSize: 0x7C }
  - { offsetInCU: 0x57BC76, offset: 0x57BC76, size: 0x8, addend: 0x0, symName: __ZN4FMCA14NystromMomentsINS_23TotalDegreeInterpolatorEEC1ERKN5Eigen6MatrixIdLin1ELin1ELi0ELin1ELin1EEEj, symObjAddr: 0x2EF74, symBinAddr: 0x10002FF94, symSize: 0x7C }
  - { offsetInCU: 0x57BC9A, offset: 0x57BC9A, size: 0x8, addend: 0x0, symName: __ZN4FMCA14NystromMomentsINS_23TotalDegreeInterpolatorEEC1ERKN5Eigen6MatrixIdLin1ELin1ELi0ELin1ELin1EEEj, symObjAddr: 0x2EF74, symBinAddr: 0x10002FF94, symSize: 0x7C }
  - { offsetInCU: 0x57BCBE, offset: 0x57BCBE, size: 0x8, addend: 0x0, symName: __ZN4FMCA14NystromMomentsINS_23TotalDegreeInterpolatorEEC1ERKN5Eigen6MatrixIdLin1ELin1ELi0ELin1ELin1EEEj, symObjAddr: 0x2EF74, symBinAddr: 0x10002FF94, symSize: 0x7C }
  - { offsetInCU: 0x57BCF0, offset: 0x57BCF0, size: 0x8, addend: 0x0, symName: __ZN4FMCA14NystromMomentsINS_23TotalDegreeInterpolatorEEC1ERKN5Eigen6MatrixIdLin1ELin1ELi0ELin1ELin1EEEj, symObjAddr: 0x2EF74, symBinAddr: 0x10002FF94, symSize: 0x7C }
  - { offsetInCU: 0x57BD18, offset: 0x57BD18, size: 0x8, addend: 0x0, symName: __ZN4FMCA14NystromMomentsINS_23TotalDegreeInterpolatorEEC1ERKN5Eigen6MatrixIdLin1ELin1ELi0ELin1ELin1EEEj, symObjAddr: 0x2EF74, symBinAddr: 0x10002FF94, symSize: 0x7C }
  - { offsetInCU: 0x57D21C, offset: 0x57D21C, size: 0x8, addend: 0x0, symName: __ZN4FMCA8internal28mostSignificantBitDifferenceEdd, symObjAddr: 0x74D0, symBinAddr: 0x1000084F0, symSize: 0xA4 }
  - { offsetInCU: 0x57D224, offset: 0x57D224, size: 0x8, addend: 0x0, symName: __ZN4FMCA15ClusterSplitter17CoordinateCompareclEjRj, symObjAddr: 0x7574, symBinAddr: 0x100008594, symSize: 0x5C }
  - { offsetInCU: 0x57D540, offset: 0x57D540, size: 0x8, addend: 0x0, symName: __ZN4FMCA10GradKernelC1ERKNSt7__cxx1112basic_stringIcSt11char_traitsIcESaIcEEEddi, symObjAddr: 0x7310, symBinAddr: 0x100008330, symSize: 0x1C0 }
  - { offsetInCU: 0x57DDE6, offset: 0x57DDE6, size: 0x8, addend: 0x0, symName: __ZN4FMCA10GradKernelC1ERKS0_, symObjAddr: 0x7200, symBinAddr: 0x100008220, symSize: 0x110 }
  - { offsetInCU: 0x57DDEE, offset: 0x57DDEE, size: 0x8, addend: 0x0, symName: __ZN4FMCA10GradKernelC1ERKNSt7__cxx1112basic_stringIcSt11char_traitsIcESaIcEEEddi, symObjAddr: 0x7310, symBinAddr: 0x100008330, symSize: 0x1C0 }
  - { offsetInCU: 0x57E016, offset: 0x57E016, size: 0x8, addend: 0x0, symName: __ZN4FMCA10GradKernelC1ERKNSt7__cxx1112basic_stringIcSt11char_traitsIcESaIcEEEddi, symObjAddr: 0x7310, symBinAddr: 0x100008330, symSize: 0x1C0 }
  - { offsetInCU: 0x57E6A6, offset: 0x57E6A6, size: 0x8, addend: 0x0, symName: __ZZN5Eigen8internal22manage_multi_threadingENS_6ActionEPiE12m_maxThreads, symObjAddr: 0x31988, symBinAddr: 0x10003CC48, symSize: 0x0 }
  - { offsetInCU: 0x57E772, offset: 0x57E772, size: 0x8, addend: 0x0, symName: __ZZN5Eigen8internal20manage_caching_sizesENS_6ActionEPlS2_S2_E12m_cacheSizes, symObjAddr: 0x31998, symBinAddr: 0x10003CC58, symSize: 0x0 }
  - { offsetInCU: 0x57ED2A, offset: 0x57ED2A, size: 0x8, addend: 0x0, symName: __ZN5Eigen8internal19throw_std_bad_allocEv, symObjAddr: 0x303D4, symBinAddr: 0x1000300E0, symSize: 0x34 }
  - { offsetInCU: 0x57ED32, offset: 0x57ED32, size: 0x8, addend: 0x0, symName: GCC_except_table0, symObjAddr: 0x30408, symBinAddr: 0x10003C000, symSize: 0x0 }
  - { offsetInCU: 0x58266E, offset: 0x58266E, size: 0x8, addend: 0x0, symName: __ZNK5Eigen15DenseCoeffsBaseINS_6MatrixIdLin1ELin1ELi0ELin1ELin1EEELi0EEclEll.part.0, symObjAddr: 0x30334, symBinAddr: 0x100030040, symSize: 0x28 }
  - { offsetInCU: 0x582676, offset: 0x582676, size: 0x8, addend: 0x0, symName: __ZNK5Eigen15DenseCoeffsBaseINS_5BlockIKNS_6MatrixIdLin1ELin1ELi0ELin1ELin1EEELin1ELi1ELb1EEELi0EEixEl.part.0, symObjAddr: 0x3035C, symBinAddr: 0x100030068, symSize: 0x28 }
  - { offsetInCU: 0x5826AB, offset: 0x5826AB, size: 0x8, addend: 0x0, symName: __ZN5Eigen7MapBaseINS_5BlockIKNS_6MatrixIdLin1ELin1ELi0ELin1ELin1EEELin1ELi1ELb1EEELi0EEC2EPKdll.part.0, symObjAddr: 0x20, symBinAddr: 0x100001040, symSize: 0x30 }
  - { offsetInCU: 0x5826B3, offset: 0x5826B3, size: 0x8, addend: 0x0, symName: __ZNSt17_Function_handlerIFddddEZN4FMCA10GradKernelC4ERKNSt7__cxx1112basic_stringIcSt11char_traitsIcESaIcEEEddiEUldddE_E10_M_managerERSt9_Any_dataRKSD_St18_Manager_operation, symObjAddr: 0x50, symBinAddr: 0x100001070, symSize: 0x40 }
  - { offsetInCU: 0x5826F1, offset: 0x5826F1, size: 0x8, addend: 0x0, symName: __ZN5Eigen7MapBaseINS_5BlockIKNS_6MatrixIdLin1ELin1ELi0ELin1ELin1EEELin1ELi1ELb1EEELi0EEC2EPKdll.part.0, symObjAddr: 0x20, symBinAddr: 0x100001040, symSize: 0x30 }
  - { offsetInCU: 0x5827B6, offset: 0x5827B6, size: 0x8, addend: 0x0, symName: __ZNSt17_Function_handlerIFddddEZN4FMCA10GradKernelC4ERKNSt7__cxx1112basic_stringIcSt11char_traitsIcESaIcEEEddiEUldddE_E10_M_managerERSt9_Any_dataRKSD_St18_Manager_operation, symObjAddr: 0x50, symBinAddr: 0x100001070, symSize: 0x40 }
  - { offsetInCU: 0x582854, offset: 0x582854, size: 0x8, addend: 0x0, symName: __ZNK5Eigen15DenseCoeffsBaseINS_5BlockIKNS_6MatrixIdLin1ELin1ELi0ELin1ELin1EEELin1ELi1ELb1EEELi0EEixEl.part.0, symObjAddr: 0x3035C, symBinAddr: 0x100030068, symSize: 0x28 }
  - { offsetInCU: 0x58285C, offset: 0x58285C, size: 0x8, addend: 0x0, symName: __ZN5Eigen9DenseBaseINS_6MatrixIdLin1ELin1ELi0ELin1ELin1EEEE8ConstantEllRKd.part.0, symObjAddr: 0x30384, symBinAddr: 0x100030090, symSize: 0x28 }
  - { offsetInCU: 0x582887, offset: 0x582887, size: 0x8, addend: 0x0, symName: __ZN5Eigen7MapBaseINS_5BlockINS_6MatrixIdLin1ELin1ELi0ELin1ELin1EEELi1ELin1ELb0EEELi0EEC2EPdll.part.0, symObjAddr: 0x90, symBinAddr: 0x1000010B0, symSize: 0x30 }
  - { offsetInCU: 0x58288F, offset: 0x58288F, size: 0x8, addend: 0x0, symName: __ZN5Eigen7MapBaseINS_5BlockIKNS_6MatrixIdLin1ELin1ELi0ELin1ELin1EEELin1ELin1ELb1EEELi0EEC2EPKdll.part.0, symObjAddr: 0xC0, symBinAddr: 0x1000010E0, symSize: 0x34 }
  - { offsetInCU: 0x5828CD, offset: 0x5828CD, size: 0x8, addend: 0x0, symName: __ZN5Eigen7MapBaseINS_5BlockINS_6MatrixIdLin1ELin1ELi0ELin1ELin1EEELi1ELin1ELb0EEELi0EEC2EPdll.part.0, symObjAddr: 0x90, symBinAddr: 0x1000010B0, symSize: 0x30 }
  - { offsetInCU: 0x5828E4, offset: 0x5828E4, size: 0x8, addend: 0x0, symName: __ZN5Eigen7MapBaseINS_5BlockIKNS_6MatrixIdLin1ELin1ELi0ELin1ELin1EEELin1ELin1ELb1EEELi0EEC2EPKdll.part.0, symObjAddr: 0xC0, symBinAddr: 0x1000010E0, symSize: 0x34 }
  - { offsetInCU: 0x5828EC, offset: 0x5828EC, size: 0x8, addend: 0x0, symName: __ZN5Eigen8internal13gemm_pack_rhsIdlNS0_22const_blas_data_mapperIdlLi1EEELi4ELi1ELb0ELb0EEclEPdRKS3_llll.constprop.0, symObjAddr: 0xF4, symBinAddr: 0x100001114, symSize: 0x110 }
  - { offsetInCU: 0x58292E, offset: 0x58292E, size: 0x8, addend: 0x0, symName: __ZN5Eigen7MapBaseINS_5BlockIKNS_6MatrixIdLin1ELin1ELi0ELin1ELin1EEELin1ELin1ELb1EEELi0EEC2EPKdll.part.0, symObjAddr: 0xC0, symBinAddr: 0x1000010E0, symSize: 0x34 }
  - { offsetInCU: 0x582945, offset: 0x582945, size: 0x8, addend: 0x0, symName: __ZN5Eigen9DenseBaseINS_6MatrixIdLin1ELin1ELi0ELin1ELin1EEEE8ConstantEllRKd.part.0, symObjAddr: 0x30384, symBinAddr: 0x100030090, symSize: 0x28 }
  - { offsetInCU: 0x58294D, offset: 0x58294D, size: 0x8, addend: 0x0, symName: __ZNK5Eigen15DenseCoeffsBaseINS_5BlockINS_6MatrixIdLin1ELi1ELi0ELin1ELi1EEELin1ELi1ELb0EEELi0EEclEl.part.0, symObjAddr: 0x303AC, symBinAddr: 0x1000300B8, symSize: 0x28 }
  - { offsetInCU: 0x582A10, offset: 0x582A10, size: 0x8, addend: 0x0, symName: __ZNK5Eigen15DenseCoeffsBaseINS_5BlockINS_6MatrixIdLin1ELi1ELi0ELin1ELi1EEELin1ELi1ELb0EEELi0EEclEl.part.0, symObjAddr: 0x303AC, symBinAddr: 0x1000300B8, symSize: 0x28 }
  - { offsetInCU: 0x582A18, offset: 0x582A18, size: 0x8, addend: 0x0, symName: __ZN5Eigen8internal19throw_std_bad_allocEv, symObjAddr: 0x303D4, symBinAddr: 0x1000300E0, symSize: 0x34 }
  - { offsetInCU: 0x582A44, offset: 0x582A44, size: 0x8, addend: 0x0, symName: __ZN5Eigen8internal13gemm_pack_rhsIdlNS0_22const_blas_data_mapperIdlLi1EEELi4ELi1ELb0ELb0EEclEPdRKS3_llll.constprop.0, symObjAddr: 0xF4, symBinAddr: 0x100001114, symSize: 0x110 }
  - { offsetInCU: 0x582A4C, offset: 0x582A4C, size: 0x8, addend: 0x0, symName: __ZN5Eigen8internal29general_matrix_vector_productIldNS0_22const_blas_data_mapperIdlLi1EEELi1ELb0EdS3_Lb0ELi1EE3runEllRKS3_S6_Pdld.constprop.0, symObjAddr: 0x204, symBinAddr: 0x100001224, symSize: 0x78C }
  - { offsetInCU: 0x582BBB, offset: 0x582BBB, size: 0x8, addend: 0x0, symName: __ZN5Eigen8internal29general_matrix_vector_productIldNS0_22const_blas_data_mapperIdlLi1EEELi1ELb0EdS3_Lb0ELi1EE3runEllRKS3_S6_Pdld.constprop.0, symObjAddr: 0x204, symBinAddr: 0x100001224, symSize: 0x78C }
  - { offsetInCU: 0x584FC3, offset: 0x584FC3, size: 0x8, addend: 0x0, symName: __ZN5Eigen8internal13gemm_pack_lhsIdlNS0_22const_blas_data_mapperIdlLi1EEELi6ELi2E13__Float64x2_tLi1ELb0ELb0EEclEPdRKS3_llll.constprop.0, symObjAddr: 0x990, symBinAddr: 0x1000019B0, symSize: 0x3C0 }
  - { offsetInCU: 0x584FCB, offset: 0x584FCB, size: 0x8, addend: 0x0, symName: __ZN5Eigen8internal29general_matrix_vector_productIldNS0_22const_blas_data_mapperIdlLi1EEELi1ELb0EdNS2_IdlLi0EEELb0ELi0EE3runEllRKS3_RKS4_Pdld.constprop.0, symObjAddr: 0xD50, symBinAddr: 0x100001D70, symSize: 0x550 }
  - { offsetInCU: 0x585514, offset: 0x585514, size: 0x8, addend: 0x0, symName: __ZN5Eigen8internal29general_matrix_vector_productIldNS0_22const_blas_data_mapperIdlLi1EEELi1ELb0EdNS2_IdlLi0EEELb0ELi0EE3runEllRKS3_RKS4_Pdld.constprop.0, symObjAddr: 0xD50, symBinAddr: 0x100001D70, symSize: 0x550 }
  - { offsetInCU: 0x58788A, offset: 0x58788A, size: 0x8, addend: 0x0, symName: __ZN5Eigen8internal13gemm_pack_rhsIdlNS0_22const_blas_data_mapperIdlLi0EEELi4ELi0ELb0ELb0EEclEPdRKS3_llll.constprop.0, symObjAddr: 0x12A0, symBinAddr: 0x1000022C0, symSize: 0x330 }
  - { offsetInCU: 0x587B6C, offset: 0x587B6C, size: 0x8, addend: 0x0, symName: __ZN5Eigen8internal13gemm_pack_lhsIdlNS0_22const_blas_data_mapperIdlLi0EEELi6ELi2E13__Float64x2_tLi0ELb0ELb0EEclEPdRKS3_llll.constprop.0, symObjAddr: 0x15D0, symBinAddr: 0x1000025F0, symSize: 0x260 }
  - { offsetInCU: 0x58857B, offset: 0x58857B, size: 0x8, addend: 0x0, symName: __ZN5Eigen8internal13gemm_pack_lhsIdlNS0_22const_blas_data_mapperIdlLi0EEELi6ELi2E13__Float64x2_tLi0ELb0ELb0EEclEPdRKS3_llll.constprop.1, symObjAddr: 0x1830, symBinAddr: 0x100002850, symSize: 0x260 }
  - { offsetInCU: 0x588F89, offset: 0x588F89, size: 0x8, addend: 0x0, symName: __ZN5Eigen8internal22lhs_process_one_packetILi4ELl2ELl1Eddd13__Float64x2_tS2_dS2_NS0_11gebp_traitsIddLb0ELb0ELi4ELi0EEENS0_16BlasLinearMapperIdlLi0ELi1EEENS0_16blas_data_mapperIdlLi0ELi0ELi1EEEEclERKS8_PKdSD_dllllllilllll.constprop.0, symObjAddr: 0x1A90, symBinAddr: 0x100002AB0, symSize: 0x410 }
  - { offsetInCU: 0x58E470, offset: 0x58E470, size: 0x8, addend: 0x0, symName: __ZN5Eigen8internal11gebp_kernelIddlNS0_16blas_data_mapperIdlLi0ELi0ELi1EEELi6ELi4ELb0ELb0EEclERKS3_PKdS8_llldllll.constprop.0, symObjAddr: 0x1EA0, symBinAddr: 0x100002EC0, symSize: 0x1084 }
  - { offsetInCU: 0x58E478, offset: 0x58E478, size: 0x8, addend: 0x0, symName: __ZN5Eigen8internal13gemm_pack_rhsIdlNS0_16blas_data_mapperIdlLi0ELi0ELi1EEELi4ELi0ELb0ELb1EEclEPdRKS3_llll.isra.0, symObjAddr: 0x2F24, symBinAddr: 0x100003F44, symSize: 0x39C }
  - { offsetInCU: 0x5A37FD, offset: 0x5A37FD, size: 0x8, addend: 0x0, symName: __ZN5Eigen8internal13gemm_pack_rhsIdlNS0_16blas_data_mapperIdlLi0ELi0ELi1EEELi4ELi0ELb0ELb1EEclEPdRKS3_llll.isra.0, symObjAddr: 0x2F24, symBinAddr: 0x100003F44, symSize: 0x39C }
  - { offsetInCU: 0x5A3805, offset: 0x5A3805, size: 0x8, addend: 0x0, symName: __ZN5Eigen8internal11gebp_kernelIddlNS0_16blas_data_mapperIdlLi0ELi0ELi1EEELi6ELi4ELb0ELb0EEclERKS3_PKdS8_llldllll.isra.0, symObjAddr: 0x32C0, symBinAddr: 0x1000042E0, symSize: 0x10D0 }
  - { offsetInCU: 0x5A3A75, offset: 0x5A3A75, size: 0x8, addend: 0x0, symName: __ZN5Eigen8internal11gebp_kernelIddlNS0_16blas_data_mapperIdlLi0ELi0ELi1EEELi6ELi4ELb0ELb0EEclERKS3_PKdS8_llldllll.isra.0, symObjAddr: 0x32C0, symBinAddr: 0x1000042E0, symSize: 0x10D0 }
  - { offsetInCU: 0x5B8E59, offset: 0x5B8E59, size: 0x8, addend: 0x0, symName: __ZN5Eigen8internal29general_matrix_vector_productIldNS0_22const_blas_data_mapperIdlLi0EEELi0ELb0EdNS2_IdlLi1EEELb0ELi0EE3runEllRKS3_RKS4_Pdld.isra.0, symObjAddr: 0x4390, symBinAddr: 0x1000053B0, symSize: 0x520 }
  - { offsetInCU: 0x5BC44C, offset: 0x5BC44C, size: 0x8, addend: 0x0, symName: __ZN4FMCA20IDDFSForwardIteratorINS_13H2SampletTreeINS_11ClusterTreeEEELb0EEppEv.isra.0, symObjAddr: 0x48B4, symBinAddr: 0x1000058D4, symSize: 0x12C }
  - { offsetInCU: 0x5BC454, offset: 0x5BC454, size: 0x8, addend: 0x0, symName: __ZNSt17_Function_handlerIFddddEZN4FMCA10GradKernelC4ERKNSt7__cxx1112basic_stringIcSt11char_traitsIcESaIcEEEddiEUldddE_E9_M_invokeERKSt9_Any_dataOdSG_SG_, symObjAddr: 0x49E0, symBinAddr: 0x100005A00, symSize: 0x54 }
  - { offsetInCU: 0x5BC517, offset: 0x5BC517, size: 0x8, addend: 0x0, symName: __ZSt4endlIcSt11char_traitsIcEERSt13basic_ostreamIT_T0_ES6_.isra.0, symObjAddr: 0x4A34, symBinAddr: 0x100005A54, symSize: 0x6C }
  - { offsetInCU: 0x5BC51F, offset: 0x5BC51F, size: 0x8, addend: 0x0, symName: __ZN5EigenmlIdEEKNS_13CwiseBinaryOpINS_8internal17scalar_product_opINS2_18promote_scalar_argIdT_XsrNS2_14has_ReturnTypeINS_20ScalarBinaryOpTraitsIS5_dNS3_IS5_dEEEEEE5valueEE4typeEdEEKNS2_19plain_constant_typeINS1_INS2_13scalar_sum_opIddEEKNS_12ArrayWrapperIKNS_14CwiseNullaryOpINS2_16scalar_random_opIdEENS_6MatrixIdLin1ELin1ELi0ELin1ELin1EEEEEEEKNSI_INS2_18scalar_constant_opIdEEKNS_5ArrayIdLin1ELin1ELi0ELin1ELin1EEEEEEESC_E4typeEKSY_EERKS5_RKNS_9ArrayBaseISY_EE.isra.0, symObjAddr: 0x4AA0, symBinAddr: 0x100005AC0, symSize: 0xB0 }
  - { offsetInCU: 0x5BC62F, offset: 0x5BC62F, size: 0x8, addend: 0x0, symName: __ZN5EigenmlIdEEKNS_13CwiseBinaryOpINS_8internal17scalar_product_opINS2_18promote_scalar_argIdT_XsrNS2_14has_ReturnTypeINS_20ScalarBinaryOpTraitsIS5_dNS3_IS5_dEEEEEE5valueEE4typeEdEEKNS2_19plain_constant_typeINS1_INS2_13scalar_sum_opIddEEKNS_12ArrayWrapperIKNS_14CwiseNullaryOpINS2_16scalar_random_opIdEENS_6MatrixIdLin1ELin1ELi0ELin1ELin1EEEEEEEKNSI_INS2_18scalar_constant_opIdEEKNS_5ArrayIdLin1ELin1ELi0ELin1ELin1EEEEEEESC_E4typeEKSY_EERKS5_RKNS_9ArrayBaseISY_EE.isra.0, symObjAddr: 0x4AA0, symBinAddr: 0x100005AC0, symSize: 0xB0 }
  - { offsetInCU: 0x5BC8DD, offset: 0x5BC8DD, size: 0x8, addend: 0x0, symName: __ZNK5Eigen9ArrayBaseINS_12ArrayWrapperIKNS_14CwiseNullaryOpINS_8internal16scalar_random_opIdEENS_6MatrixIdLin1ELin1ELi0ELin1ELin1EEEEEEEEplIiEEKNS_13CwiseBinaryOpINS3_13scalar_sum_opIdNS3_18promote_scalar_argIdT_XsrNS3_14has_ReturnTypeINS_20ScalarBinaryOpTraitsIdSG_NSE_IdSG_EEEEEE5valueEE4typeEEEKSA_KNS3_19plain_constant_typeISA_SN_E4typeEEERKSG_.isra.0, symObjAddr: 0x4B50, symBinAddr: 0x100005B70, symSize: 0x90 }
  - { offsetInCU: 0x5BC8E5, offset: 0x5BC8E5, size: 0x8, addend: 0x0, symName: __ZNSt19_Sp_counted_deleterIPjSt14default_deleteIA_jESaIvELN9__gnu_cxx12_Lock_policyE2EE14_M_get_deleterERKSt9type_info, symObjAddr: 0x4BE0, symBinAddr: 0x100005C00, symSize: 0x54 }
  - { offsetInCU: 0x5BCAFA, offset: 0x5BCAFA, size: 0x8, addend: 0x0, symName: __ZNSt8_Rb_treeIjSt4pairIKjN5Eigen6MatrixIdLin1ELin1ELi0ELin1ELin1EEEESt10_Select1stIS5_ESt7greaterIjESaIS5_EE8_M_eraseEPSt13_Rb_tree_nodeIS5_E.isra.0, symObjAddr: 0x4C34, symBinAddr: 0x100005C54, symSize: 0x1AC }
  - { offsetInCU: 0x5BE7CD, offset: 0x5BE7CD, size: 0x8, addend: 0x0, symName: __ZN5Eigen5BlockIKNS_6MatrixIdLin1ELin1ELi0ELin1ELin1EEELi1ELin1ELb0EEC1ERS3_l.constprop.0, symObjAddr: 0x4DE0, symBinAddr: 0x100005E00, symSize: 0x90 }
  - { offsetInCU: 0x5BEA8A, offset: 0x5BEA8A, size: 0x8, addend: 0x0, symName: __ZN5Eigen5BlockINS_6MatrixIdLin1ELin1ELi0ELin1ELin1EEELin1ELin1ELb1EEC1ERS2_llll.constprop.0, symObjAddr: 0x4E70, symBinAddr: 0x100005E90, symSize: 0xB0 }
  - { offsetInCU: 0x5BEE65, offset: 0x5BEE65, size: 0x8, addend: 0x0, symName: __ZN4FMCA20IDDFSForwardIteratorINS_13H2SampletTreeINS_11ClusterTreeEEELb1EEppEv.isra.0, symObjAddr: 0x4F20, symBinAddr: 0x100005F40, symSize: 0x244 }
  - { offsetInCU: 0x5BEE6D, offset: 0x5BEE6D, size: 0x8, addend: 0x0, symName: __ZNSt8_Rb_treeISt6vectorIjSaIjEES2_St9_IdentityIS2_EN4FMCA12FMCA_CompareIS2_EESaIS2_EE8_M_eraseEPSt13_Rb_tree_nodeIS2_E.isra.0, symObjAddr: 0x5164, symBinAddr: 0x100006184, symSize: 0x25C }
  - { offsetInCU: 0x5BEFFB, offset: 0x5BEFFB, size: 0x8, addend: 0x0, symName: __ZNSt8_Rb_treeISt6vectorIjSaIjEES2_St9_IdentityIS2_EN4FMCA12FMCA_CompareIS2_EESaIS2_EE8_M_eraseEPSt13_Rb_tree_nodeIS2_E.isra.0, symObjAddr: 0x5164, symBinAddr: 0x100006184, symSize: 0x25C }
  - { offsetInCU: 0x5C0C09, offset: 0x5C0C09, size: 0x8, addend: 0x0, symName: __ZN5Eigen5BlockIKNS_6MatrixIdLin1ELin1ELi0ELin1ELin1EEELin1ELi1ELb1EEC1ERS3_l.constprop.0, symObjAddr: 0x53C0, symBinAddr: 0x1000063E0, symSize: 0x80 }
  - { offsetInCU: 0x5C0EE3, offset: 0x5C0EE3, size: 0x8, addend: 0x0, symName: __ZN5Eigen5BlockINS_6MatrixIdLin1ELin1ELi0ELin1ELin1EEELin1ELi1ELb1EEC1ERS2_l.constprop.0, symObjAddr: 0x5440, symBinAddr: 0x100006460, symSize: 0x80 }
  - { offsetInCU: 0x5C1208, offset: 0x5C1208, size: 0x8, addend: 0x0, symName: __ZN5Eigen5BlockINS_6MatrixIdLin1ELin1ELi0ELin1ELin1EEELin1ELi1ELb1EEC1ERS2_l.constprop.1, symObjAddr: 0x54C0, symBinAddr: 0x1000064E0, symSize: 0x84 }
  - { offsetInCU: 0x5C1210, offset: 0x5C1210, size: 0x8, addend: 0x0, symName: __ZN5Eigen8internal32triangular_matrix_vector_productIlLi6EdLb0EdLb0ELi1ELi0EE3runEllPKdlS4_lPdlRS3_.constprop.0, symObjAddr: 0x5544, symBinAddr: 0x100006564, symSize: 0x2E0 }
  - { offsetInCU: 0x5C1539, offset: 0x5C1539, size: 0x8, addend: 0x0, symName: __ZN5Eigen8internal32triangular_matrix_vector_productIlLi6EdLb0EdLb0ELi1ELi0EE3runEllPKdlS4_lPdlRS3_.constprop.0, symObjAddr: 0x5544, symBinAddr: 0x100006564, symSize: 0x2E0 }
  - { offsetInCU: 0x5C1541, offset: 0x5C1541, size: 0x8, addend: 0x0, symName: __ZN5Eigen15PlainObjectBaseINS_6MatrixIdLin1ELin1ELi0ELin1ELin1EEEE6resizeEll.constprop.1, symObjAddr: 0x5824, symBinAddr: 0x100006844, symSize: 0xBC }
  - { offsetInCU: 0x5C265D, offset: 0x5C265D, size: 0x8, addend: 0x0, symName: __ZN5Eigen15PlainObjectBaseINS_6MatrixIdLin1ELin1ELi0ELin1ELin1EEEE6resizeEll.constprop.1, symObjAddr: 0x5824, symBinAddr: 0x100006844, symSize: 0xBC }
  - { offsetInCU: 0x5C284E, offset: 0x5C284E, size: 0x8, addend: 0x0, symName: __ZN5Eigen8internal19gemv_dense_selectorILi2ELi0ELb1EE3runINS_6MatrixIdLin1ELin1ELi0ELin1ELin1EEENS_5BlockIKNS_9TransposeIKS5_EELin1ELi1ELb0EEENS6_INS4_IdLin1ELin1ELi1ELin1ELin1EEELin1ELi1ELb0EEEEEvRKT_RKT0_RT1_RKNSK_6ScalarE.isra.0, symObjAddr: 0x58E0, symBinAddr: 0x100006900, symSize: 0x2A4 }
  - { offsetInCU: 0x5C2856, offset: 0x5C2856, size: 0x8, addend: 0x0, symName: __ZN5Eigen8internal19gemv_dense_selectorILi2ELi0ELb1EE3runINS_9TransposeIKNS4_IKNS_6MatrixIdLin1ELin1ELi0ELin1ELin1EEEEEEENS4_IKNS_5BlockIS7_Li1ELin1ELb0EEEEENS4_INSB_IS6_Li1ELin1ELb0EEEEEEEvRKT_RKT0_RT1_RKNSN_6ScalarE.isra.0, symObjAddr: 0x5B84, symBinAddr: 0x100006BA4, symSize: 0x2AC }
  - { offsetInCU: 0x5C373B, offset: 0x5C373B, size: 0x8, addend: 0x0, symName: __ZN5Eigen8internal19gemv_dense_selectorILi2ELi0ELb1EE3runINS_9TransposeIKNS4_IKNS_6MatrixIdLin1ELin1ELi0ELin1ELin1EEEEEEENS4_IKNS_5BlockIS7_Li1ELin1ELb0EEEEENS4_INSB_IS6_Li1ELin1ELb0EEEEEEEvRKT_RKT0_RT1_RKNSN_6ScalarE.isra.0, symObjAddr: 0x5B84, symBinAddr: 0x100006BA4, symSize: 0x2AC }
  - { offsetInCU: 0x5C375F, offset: 0x5C375F, size: 0x8, addend: 0x0, symName: __ZN5Eigen8internal19gemv_dense_selectorILi2ELi0ELb1EE3runINS_9TransposeIKNS4_IKNS_6MatrixIdLin1ELin1ELi0ELin1ELin1EEEEEEENS4_IKNS_5BlockIS7_Li1ELin1ELb0EEEEENS4_INSB_IS6_Li1ELin1ELb0EEEEEEEvRKT_RKT0_RT1_RKNSN_6ScalarE.isra.0, symObjAddr: 0x5B84, symBinAddr: 0x100006BA4, symSize: 0x2AC }
  - { offsetInCU: 0x5C3783, offset: 0x5C3783, size: 0x8, addend: 0x0, symName: __ZN5Eigen8internal19gemv_dense_selectorILi2ELi0ELb1EE3runINS_9TransposeIKNS4_IKNS_6MatrixIdLin1ELin1ELi0ELin1ELin1EEEEEEENS4_IKNS_5BlockIS7_Li1ELin1ELb0EEEEENS4_INSB_IS6_Li1ELin1ELb0EEEEEEEvRKT_RKT0_RT1_RKNSN_6ScalarE.isra.0, symObjAddr: 0x5B84, symBinAddr: 0x100006BA4, symSize: 0x2AC }
  - { offsetInCU: 0x5C4945, offset: 0x5C4945, size: 0x8, addend: 0x0, symName: __ZN5Eigen8internal14aligned_mallocEm, symObjAddr: 0x5E30, symBinAddr: 0x100006E50, symSize: 0x30 }
  - { offsetInCU: 0x5C494D, offset: 0x5C494D, size: 0x8, addend: 0x0, symName: __ZN5Eigen8internal26outer_product_selector_runINS_5BlockINS2_INS2_INS_6MatrixIdLin1ELin1ELi0ELin1ELin1EEELin1ELin1ELb0EEELin1ELin1ELb0EEELin1ELin1ELb0EEENS_13CwiseBinaryOpINS0_17scalar_product_opIddEEKNS_14CwiseNullaryOpINS0_18scalar_constant_opIdEEKNS3_IdLin1ELi1ELi0ELin1ELi1EEEEEKNS2_INS2_IS5_Lin1ELi1ELb1EEELin1ELi1ELb0EEEEENS_3MapINS3_IdLi1ELin1ELi1ELi1ELin1EEELi0ENS_6StrideILi0ELi0EEEEENS0_20generic_product_implISL_SQ_NS_10DenseShapeESS_Li5EE3subEEEvRT_RKT0_RKT1_RKT2_RKNS0_10false_typeE.isra.0, symObjAddr: 0x5E60, symBinAddr: 0x100006E80, symSize: 0x490 }
  - { offsetInCU: 0x5C495F, offset: 0x5C495F, size: 0x8, addend: 0x0, symName: __ZN5Eigen8internal26outer_product_selector_runINS_5BlockINS2_INS2_INS_6MatrixIdLin1ELin1ELi0ELin1ELin1EEELin1ELin1ELb0EEELin1ELin1ELb0EEELin1ELin1ELb0EEENS_13CwiseBinaryOpINS0_17scalar_product_opIddEEKNS_14CwiseNullaryOpINS0_18scalar_constant_opIdEEKNS3_IdLin1ELi1ELi0ELin1ELi1EEEEEKNS2_INS2_IS5_Lin1ELi1ELb1EEELin1ELi1ELb0EEEEENS_3MapINS3_IdLi1ELin1ELi1ELi1ELin1EEELi0ENS_6StrideILi0ELi0EEEEENS0_20generic_product_implISL_SQ_NS_10DenseShapeESS_Li5EE3subEEEvRT_RKT0_RKT1_RKT2_RKNS0_10false_typeE.isra.0, symObjAddr: 0x5E60, symBinAddr: 0x100006E80, symSize: 0x490 }
  - { offsetInCU: 0x5C4967, offset: 0x5C4967, size: 0x8, addend: 0x0, symName: __ZN5Eigen8internal26outer_product_selector_runINS_5BlockINS2_INS_6MatrixIdLin1ELin1ELi0ELin1ELin1EEELin1ELin1ELb0EEELin1ELin1ELb0EEENS_13CwiseBinaryOpINS0_17scalar_product_opIddEEKNS_14CwiseNullaryOpINS0_18scalar_constant_opIdEEKNS3_IdLin1ELi1ELi0ELin1ELi1EEEEEKNS_3MapISD_Li0ENS_6StrideILi0ELi0EEEEEEENS_9TransposeIKNS2_IKS4_Lin1ELi1ELb0EEEEENS0_20generic_product_implISM_SR_NS_10DenseShapeEST_Li5EE3subEEEvRT_RKT0_RKT1_RKT2_RKNS0_10false_typeE.isra.0, symObjAddr: 0x62F0, symBinAddr: 0x100007310, symSize: 0x490 }
  - { offsetInCU: 0x5C643D, offset: 0x5C643D, size: 0x8, addend: 0x0, symName: __ZN5Eigen8internal26outer_product_selector_runINS_5BlockINS2_INS_6MatrixIdLin1ELin1ELi0ELin1ELin1EEELin1ELin1ELb0EEELin1ELin1ELb0EEENS_13CwiseBinaryOpINS0_17scalar_product_opIddEEKNS_14CwiseNullaryOpINS0_18scalar_constant_opIdEEKNS3_IdLin1ELi1ELi0ELin1ELi1EEEEEKNS_3MapISD_Li0ENS_6StrideILi0ELi0EEEEEEENS_9TransposeIKNS2_IKS4_Lin1ELi1ELb0EEEEENS0_20generic_product_implISM_SR_NS_10DenseShapeEST_Li5EE3subEEEvRT_RKT0_RKT1_RKT2_RKNS0_10false_typeE.isra.0, symObjAddr: 0x62F0, symBinAddr: 0x100007310, symSize: 0x490 }
  - { offsetInCU: 0x5C6445, offset: 0x5C6445, size: 0x8, addend: 0x0, symName: __ZN5Eigen8internal26outer_product_selector_runINS_5BlockINS2_INS_6MatrixIdLin1ELin1ELi0ELin1ELin1EEELin1ELin1ELb0EEELin1ELin1ELb0EEENS_13CwiseBinaryOpINS0_17scalar_product_opIddEEKNS_14CwiseNullaryOpINS0_18scalar_constant_opIdEEKNS3_IdLin1ELi1ELi0ELin1ELi1EEEEEKNS2_IKS4_Lin1ELi1ELb0EEEEENS_3MapINS3_IdLi1ELin1ELi1ELi1ELin1EEELi0ENS_6StrideILi0ELi0EEEEENS0_20generic_product_implISK_SP_NS_10DenseShapeESR_Li5EE3subEEEvRT_RKT0_RKT1_RKT2_RKNS0_10false_typeE.isra.0, symObjAddr: 0x6780, symBinAddr: 0x1000077A0, symSize: 0x490 }
  - { offsetInCU: 0x5C8009, offset: 0x5C8009, size: 0x8, addend: 0x0, symName: __ZN5Eigen8internal26outer_product_selector_runINS_5BlockINS2_INS_6MatrixIdLin1ELin1ELi0ELin1ELin1EEELin1ELin1ELb0EEELin1ELin1ELb0EEENS_13CwiseBinaryOpINS0_17scalar_product_opIddEEKNS_14CwiseNullaryOpINS0_18scalar_constant_opIdEEKNS3_IdLin1ELi1ELi0ELin1ELi1EEEEEKNS2_IKS4_Lin1ELi1ELb0EEEEENS_3MapINS3_IdLi1ELin1ELi1ELi1ELin1EEELi0ENS_6StrideILi0ELi0EEEEENS0_20generic_product_implISK_SP_NS_10DenseShapeESR_Li5EE3subEEEvRT_RKT0_RKT1_RKT2_RKNS0_10false_typeE.isra.0, symObjAddr: 0x6780, symBinAddr: 0x1000077A0, symSize: 0x490 }
  - { offsetInCU: 0x5C8011, offset: 0x5C8011, size: 0x8, addend: 0x0, symName: __ZN5Eigen8internal19gemv_dense_selectorILi2ELi1ELb1EE3runINS_9TransposeIKNS_5BlockINS5_INS_6MatrixIdLin1ELin1ELi0ELin1ELin1EEELin1ELin1ELb0EEELin1ELin1ELb0EEEEENS4_IKNS4_IKNS5_IKS7_Lin1ELi1ELb0EEEEEEENS4_INS_3MapINS6_IdLi1ELin1ELi1ELi1ELin1EEELi0ENS_6StrideILi0ELi0EEEEEEEEEvRKT_RKT0_RT1_RKNSU_6ScalarE.isra.0, symObjAddr: 0x6C10, symBinAddr: 0x100007C30, symSize: 0x180 }
  - { offsetInCU: 0x5C9AF1, offset: 0x5C9AF1, size: 0x8, addend: 0x0, symName: __ZN5Eigen8internal19gemv_dense_selectorILi2ELi1ELb1EE3runINS_9TransposeIKNS_5BlockINS5_INS_6MatrixIdLin1ELin1ELi0ELin1ELin1EEELin1ELin1ELb0EEELin1ELin1ELb0EEEEENS4_IKNS4_IKNS5_IKS7_Lin1ELi1ELb0EEEEEEENS4_INS_3MapINS6_IdLi1ELin1ELi1ELi1ELin1EEELi0ENS_6StrideILi0ELi0EEEEEEEEEvRKT_RKT0_RT1_RKNSU_6ScalarE.isra.0, symObjAddr: 0x6C10, symBinAddr: 0x100007C30, symSize: 0x180 }
  - { offsetInCU: 0x5CA37A, offset: 0x5CA37A, size: 0x8, addend: 0x0, symName: __ZN5Eigen8internal19gemv_dense_selectorILi2ELi1ELb1EE3runINS_9TransposeIKNS_6MatrixIdLin1ELin1ELi0ELin1ELin1EEEEENS_5BlockIS7_Lin1ELi1ELb1EEENS9_IS6_Lin1ELi1ELb1EEEEEvRKT_RKT0_RT1_RKNSI_6ScalarE.isra.0, symObjAddr: 0x6D90, symBinAddr: 0x100007DB0, symSize: 0x144 }
  - { offsetInCU: 0x5CA382, offset: 0x5CA382, size: 0x8, addend: 0x0, symName: __ZN5Eigen8internal13trmv_selectorILi6ELi1EE3runINS_9TransposeIKNS_5BlockIKNS5_INS_6MatrixIdLin1ELin1ELi0ELin1ELin1EEELin1ELin1ELb0EEELin1ELin1ELb0EEEEENS4_IKNS_13CwiseBinaryOpINS0_17scalar_product_opIddEEKNS_14CwiseNullaryOpINS0_18scalar_constant_opIdEEKNS6_IdLi1ELin1ELi1ELi1ELin1EEEEEKNS4_IKNS5_IKNS5_IS9_Lin1ELi1ELb1EEELin1ELi1ELb0EEEEEEEEENS4_INS5_INS5_INS6_IdLin1ELin1ELi1ELin1ELin1EEELi1ELin1ELb1EEELi1ELin1ELb0EEEEEEEvRKT_RKT0_RT1_RKNS16_6ScalarE.isra.0, symObjAddr: 0x6ED4, symBinAddr: 0x100007EF4, symSize: 0x16C }
  - { offsetInCU: 0x5CA8F9, offset: 0x5CA8F9, size: 0x8, addend: 0x0, symName: __ZN5Eigen8internal13trmv_selectorILi6ELi1EE3runINS_9TransposeIKNS_5BlockIKNS5_INS_6MatrixIdLin1ELin1ELi0ELin1ELin1EEELin1ELin1ELb0EEELin1ELin1ELb0EEEEENS4_IKNS_13CwiseBinaryOpINS0_17scalar_product_opIddEEKNS_14CwiseNullaryOpINS0_18scalar_constant_opIdEEKNS6_IdLi1ELin1ELi1ELi1ELin1EEEEEKNS4_IKNS5_IKNS5_IS9_Lin1ELi1ELb1EEELin1ELi1ELb0EEEEEEEEENS4_INS5_INS5_INS6_IdLin1ELin1ELi1ELin1ELin1EEELi1ELin1ELb1EEELi1ELin1ELb0EEEEEEEvRKT_RKT0_RT1_RKNS16_6ScalarE.isra.0, symObjAddr: 0x6ED4, symBinAddr: 0x100007EF4, symSize: 0x16C }
  - { offsetInCU: 0x5CA91D, offset: 0x5CA91D, size: 0x8, addend: 0x0, symName: __ZN5Eigen8internal13trmv_selectorILi6ELi1EE3runINS_9TransposeIKNS_5BlockIKNS5_INS_6MatrixIdLin1ELin1ELi0ELin1ELin1EEELin1ELin1ELb0EEELin1ELin1ELb0EEEEENS4_IKNS_13CwiseBinaryOpINS0_17scalar_product_opIddEEKNS_14CwiseNullaryOpINS0_18scalar_constant_opIdEEKNS6_IdLi1ELin1ELi1ELi1ELin1EEEEEKNS4_IKNS5_IKNS5_IS9_Lin1ELi1ELb1EEELin1ELi1ELb0EEEEEEEEENS4_INS5_INS5_INS6_IdLin1ELin1ELi1ELin1ELin1EEELi1ELin1ELb1EEELi1ELin1ELb0EEEEEEEvRKT_RKT0_RT1_RKNS16_6ScalarE.isra.0, symObjAddr: 0x6ED4, symBinAddr: 0x100007EF4, symSize: 0x16C }
  - { offsetInCU: 0x5CA940, offset: 0x5CA940, size: 0x8, addend: 0x0, symName: __ZN5Eigen8internal13trmv_selectorILi6ELi1EE3runINS_9TransposeIKNS_5BlockIKNS5_INS_6MatrixIdLin1ELin1ELi0ELin1ELin1EEELin1ELin1ELb0EEELin1ELin1ELb0EEEEENS4_IKNS_13CwiseBinaryOpINS0_17scalar_product_opIddEEKNS_14CwiseNullaryOpINS0_18scalar_constant_opIdEEKNS6_IdLi1ELin1ELi1ELi1ELin1EEEEEKNS4_IKNS5_IKNS5_IS9_Lin1ELi1ELb1EEELin1ELi1ELb0EEEEEEEEENS4_INS5_INS5_INS6_IdLin1ELin1ELi1ELin1ELin1EEELi1ELin1ELb1EEELi1ELin1ELb0EEEEEEEvRKT_RKT0_RT1_RKNS16_6ScalarE.isra.0, symObjAddr: 0x6ED4, symBinAddr: 0x100007EF4, symSize: 0x16C }
  - { offsetInCU: 0x5CAD95, offset: 0x5CAD95, size: 0x8, addend: 0x0, symName: __ZN5Eigen8internal19gemv_dense_selectorILi2ELi1ELb1EE3runINS_9TransposeIKNS_5BlockINS5_INS5_INS_6MatrixIdLin1ELin1ELi0ELin1ELin1EEELin1ELin1ELb0EEELin1ELin1ELb0EEELin1ELin1ELb0EEEEENS4_IKNS4_IKNS5_INS5_IS8_Lin1ELi1ELb1EEELin1ELi1ELb0EEEEEEENS4_INS_3MapINS6_IdLi1ELin1ELi1ELi1ELin1EEELi0ENS_6StrideILi0ELi0EEEEEEEEEvRKT_RKT0_RT1_RKNSV_6ScalarE.isra.0, symObjAddr: 0x7040, symBinAddr: 0x100008060, symSize: 0x1C0 }
  - { offsetInCU: 0x5CB686, offset: 0x5CB686, size: 0x8, addend: 0x0, symName: __ZN4FMCA15ClusterSplitter17CoordinateCompareclEjRj, symObjAddr: 0x7574, symBinAddr: 0x100008594, symSize: 0x5C }
  - { offsetInCU: 0x5CB68E, offset: 0x5CB68E, size: 0x8, addend: 0x0, symName: __ZN4FMCA19binomialCoefficientEjj, symObjAddr: 0x75D0, symBinAddr: 0x1000085F0, symSize: 0x4D4 }
  - { offsetInCU: 0x5CB9D8, offset: 0x5CB9D8, size: 0x8, addend: 0x0, symName: __ZN4FMCA19binomialCoefficientEjj, symObjAddr: 0x75D0, symBinAddr: 0x1000085F0, symSize: 0x4D4 }
  - { offsetInCU: 0x5CB9E0, offset: 0x5CB9E0, size: 0x8, addend: 0x0, symName: __ZN4FMCA10GradKernelD1Ev, symObjAddr: 0x7AA4, symBinAddr: 0x100008AC4, symSize: 0x4C }
  - { offsetInCU: 0x5CBBD3, offset: 0x5CBBD3, size: 0x8, addend: 0x0, symName: __ZNSt16_Sp_counted_baseILN9__gnu_cxx12_Lock_policyE2EE10_M_releaseEv, symObjAddr: 0x7D90, symBinAddr: 0x100008DB0, symSize: 0x80 }
  - { offsetInCU: 0x5CBBDF, offset: 0x5CBBDF, size: 0x8, addend: 0x0, symName: __ZNSt16_Sp_counted_baseILN9__gnu_cxx12_Lock_policyE2EE10_M_releaseEv, symObjAddr: 0x7D90, symBinAddr: 0x100008DB0, symSize: 0x80 }
  - { offsetInCU: 0x5CBBE7, offset: 0x5CBBE7, size: 0x8, addend: 0x0, symName: __ZNSt16_Sp_counted_baseILN9__gnu_cxx12_Lock_policyE2EE10_M_releaseEv, symObjAddr: 0x7D90, symBinAddr: 0x100008DB0, symSize: 0x80 }
  - { offsetInCU: 0x5CBD81, offset: 0x5CBD81, size: 0x8, addend: 0x0, symName: __ZN5Eigen15PlainObjectBaseINS_6MatrixIdLin1ELin1ELi0ELin1ELin1EEEE6resizeEll, symObjAddr: 0x7E10, symBinAddr: 0x100008E30, symSize: 0xF0 }
  - { offsetInCU: 0x5CBF7B, offset: 0x5CBF7B, size: 0x8, addend: 0x0, symName: __ZN5Eigen8internal20generic_product_implINS_6MatrixIdLin1ELin1ELi0ELin1ELin1EEES3_NS_10DenseShapeES4_Li8EE6evalToIS3_EEvRT_RKS3_SA_.part.0, symObjAddr: 0x7F00, symBinAddr: 0x100008F20, symSize: 0x3F4 }
  - { offsetInCU: 0x5CBF83, offset: 0x5CBF83, size: 0x8, addend: 0x0, symName: __ZN5Eigen9DenseBaseINS_6MatrixIdLin1ELin1ELi0ELin1ELin1EEEE11setConstantERKd.isra.0, symObjAddr: 0x82F4, symBinAddr: 0x100009314, symSize: 0x70 }
  - { offsetInCU: 0x5CDDAF, offset: 0x5CDDAF, size: 0x8, addend: 0x0, symName: __ZN5Eigen9DenseBaseINS_6MatrixIdLin1ELin1ELi0ELin1ELin1EEEE11setConstantERKd.isra.0, symObjAddr: 0x82F4, symBinAddr: 0x100009314, symSize: 0x70 }
  - { offsetInCU: 0x5CDDB7, offset: 0x5CDDB7, size: 0x8, addend: 0x0, symName: __ZN4FMCA8internal22ClusterTreeInitializerINS_11ClusterTreeEE21init_BoundingBox_implINS_13H2SampletTreeIS2_EEEEvRNS_15ClusterTreeBaseIT_EEjRKN5Eigen6MatrixIdLin1ELin1ELi0ELin1ELin1EEE.isra.0, symObjAddr: 0x8364, symBinAddr: 0x100009384, symSize: 0xD0C }
  - { offsetInCU: 0x5CDDE5, offset: 0x5CDDE5, size: 0x8, addend: 0x0, symName: __ZN5Eigen9DenseBaseINS_6MatrixIdLin1ELin1ELi0ELin1ELin1EEEE11setConstantERKd.isra.0, symObjAddr: 0x82F4, symBinAddr: 0x100009314, symSize: 0x70 }
  - { offsetInCU: 0x5CDE09, offset: 0x5CDE09, size: 0x8, addend: 0x0, symName: __ZN5Eigen9DenseBaseINS_6MatrixIdLin1ELin1ELi0ELin1ELin1EEEE11setConstantERKd.isra.0, symObjAddr: 0x82F4, symBinAddr: 0x100009314, symSize: 0x70 }
  - { offsetInCU: 0x5CDE2D, offset: 0x5CDE2D, size: 0x8, addend: 0x0, symName: __ZN5Eigen9DenseBaseINS_6MatrixIdLin1ELin1ELi0ELin1ELin1EEEE11setConstantERKd.isra.0, symObjAddr: 0x82F4, symBinAddr: 0x100009314, symSize: 0x70 }
  - { offsetInCU: 0x5CE242, offset: 0x5CE242, size: 0x8, addend: 0x0, symName: __ZN4FMCA8internal22ClusterTreeInitializerINS_11ClusterTreeEE21init_BoundingBox_implINS_13H2SampletTreeIS2_EEEEvRNS_15ClusterTreeBaseIT_EEjRKN5Eigen6MatrixIdLin1ELin1ELi0ELin1ELin1EEE.isra.0, symObjAddr: 0x8364, symBinAddr: 0x100009384, symSize: 0xD0C }
  - { offsetInCU: 0x5D5310, offset: 0x5D5310, size: 0x8, addend: 0x0, symName: __ZN5Eigen15PlainObjectBaseINS_6MatrixIdLin1ELi1ELi0ELin1ELi1EEEE6resizeEl, symObjAddr: 0x9B40, symBinAddr: 0x10000AB60, symSize: 0xA4 }
  - { offsetInCU: 0x5D5318, offset: 0x5D5318, size: 0x8, addend: 0x0, symName: __ZN4FMCA8internal23evalLegendrePolynomialsIN5Eigen5BlockINS2_6MatrixIdLin1ELin1ELi0ELin1ELin1EEELin1ELi1ELb1EEEEES5_jRKNS2_10MatrixBaseIT_EE, symObjAddr: 0x9BE4, symBinAddr: 0x10000AC04, symSize: 0xC6C }
  - { offsetInCU: 0x5D5530, offset: 0x5D5530, size: 0x8, addend: 0x0, symName: __ZN4FMCA14compareClusterINS_13H2SampletTreeINS_11ClusterTreeEEES3_EENS_13AdmissibilityERKNS_15ClusterTreeBaseIT_EERKNS5_IT0_EEd, symObjAddr: 0xB970, symBinAddr: 0x10000C990, symSize: 0x360 }
  - { offsetInCU: 0x5D746B, offset: 0x5D746B, size: 0x8, addend: 0x0, symName: __ZN4FMCA24MultiIndexSetInitializerILNS_12IndexSetTypeE0EE11addChildrenINS_13MultiIndexSetILS1_1EEEEEvRT_jRSt6vectorIjSaIjEE, symObjAddr: 0xC600, symBinAddr: 0x10000D620, symSize: 0xA90 }
  - { offsetInCU: 0x5D87D4, offset: 0x5D87D4, size: 0x8, addend: 0x0, symName: __ZN5Eigen8internal26call_dense_assignment_loopINS_6MatrixIdLin1ELin1ELi0ELin1ELin1EEES3_NS0_9assign_opIddEEEEvRT_RKT0_RKT1_, symObjAddr: 0x11CE0, symBinAddr: 0x100012D00, symSize: 0x164 }
  - { offsetInCU: 0x5D87DC, offset: 0x5D87DC, size: 0x8, addend: 0x0, symName: __ZN4FMCA8internal22ClusterTreeInitializerINS_11ClusterTreeEE16shrinkToFit_implINS_13H2SampletTreeIS2_EEEEvRNS_15ClusterTreeBaseIT_EERKN5Eigen6MatrixIdLin1ELin1ELi0ELin1ELin1EEE, symObjAddr: 0x11E44, symBinAddr: 0x100012E64, symSize: 0x17E0 }
  - { offsetInCU: 0x5D8F08, offset: 0x5D8F08, size: 0x8, addend: 0x0, symName: __ZN4FMCA8internal22ClusterTreeInitializerINS_11ClusterTreeEE21init_ClusterTree_implINS_13H2SampletTreeIS2_EEEEvRNS_15ClusterTreeBaseIT_EEjRKN5Eigen6MatrixIdLin1ELin1ELi0ELin1ELin1EEE, symObjAddr: 0x14EB0, symBinAddr: 0x100015ED0, symSize: 0x7A0 }
  - { offsetInCU: 0x5DC40A, offset: 0x5DC40A, size: 0x8, addend: 0x0, symName: __ZN5Eigen15PlainObjectBaseINS_6MatrixIdLin1ELin1ELi1ELin1ELin1EEEE6resizeEll, symObjAddr: 0x15F94, symBinAddr: 0x100016FB4, symSize: 0xEC }
  - { offsetInCU: 0x5DC681, offset: 0x5DC681, size: 0x8, addend: 0x0, symName: __ZNK5Eigen19HouseholderSequenceINS_6MatrixIdLin1ELin1ELi0ELin1ELin1EEENS1_IdLin1ELi1ELi0ELin1ELi1EEELi1EE15essentialVectorEl, symObjAddr: 0x175B0, symBinAddr: 0x1000185D0, symSize: 0xD0 }
  - { offsetInCU: 0x5DC689, offset: 0x5DC689, size: 0x8, addend: 0x0, symName: __ZN5Eigen10MatrixBaseINS_5BlockINS_6MatrixIdLin1ELin1ELi0ELin1ELin1EEELin1ELin1ELb0EEEE26applyHouseholderOnTheRightINS1_IKS3_Lin1ELi1ELb0EEEEEvRKT_RKdPd, symObjAddr: 0x17680, symBinAddr: 0x1000186A0, symSize: 0x9A0 }
  - { offsetInCU: 0x5DCA2A, offset: 0x5DCA2A, size: 0x8, addend: 0x0, symName: __ZN5Eigen8internal29general_matrix_vector_productIldNS0_22const_blas_data_mapperIdlLi1EEELi1ELb0EdNS2_IdlLi0EEELb0ELi0EE3runEllRKS3_RKS4_Pdld, symObjAddr: 0x188D0, symBinAddr: 0x1000198F0, symSize: 0x5E0 }
  - { offsetInCU: 0x5DED1D, offset: 0x5DED1D, size: 0x8, addend: 0x0, symName: __ZN5Eigen8internal19gemv_dense_selectorILi2ELi1ELb1EE3runINS_9TransposeIKNS_3RefINS_6MatrixIdLin1ELin1ELi0ELin1ELin1EEELi0ENS_11OuterStrideILin1EEEEEEENS4_IKNS_5BlockISB_Li1ELin1ELb0EEEEENS4_INSD_ISA_Li1ELin1ELb0EEEEEEEvRKT_RKT0_RT1_RKNSP_6ScalarE.isra.0, symObjAddr: 0x18EB0, symBinAddr: 0x100019ED0, symSize: 0x210 }
  - { offsetInCU: 0x5DF9A8, offset: 0x5DF9A8, size: 0x8, addend: 0x0, symName: __ZN5Eigen8internal19gemv_dense_selectorILi2ELi1ELb1EE3runINS_9TransposeIKNS_6MatrixIdLin1ELin1ELi0ELin1ELin1EEEEENS4_IKNS_5BlockIKS8_Li1ELin1ELb1EEEEENS4_INS9_IS6_Li1ELin1ELb0EEEEEEEvRKT_RKT0_RT1_RKNSM_6ScalarE.isra.0, symObjAddr: 0x190C0, symBinAddr: 0x10001A0E0, symSize: 0x150 }
  - { offsetInCU: 0x5E0184, offset: 0x5E0184, size: 0x8, addend: 0x0, symName: __ZN5Eigen8internal19gemv_dense_selectorILi2ELi1ELb1EE3runINS_9TransposeIKNS_5BlockINS_6MatrixIdLin1ELin1ELi0ELin1ELin1EEELin1ELin1ELb1EEEEENS4_IKNS5_IKS7_Li1ELin1ELb0EEEEENS4_INS5_IS7_Li1ELin1ELb0EEEEEEEvRKT_RKT0_RT1_RKNSN_6ScalarE.isra.0, symObjAddr: 0x19210, symBinAddr: 0x10001A230, symSize: 0x210 }
  - { offsetInCU: 0x5E0F9F, offset: 0x5E0F9F, size: 0x8, addend: 0x0, symName: __ZN5Eigen8internal19gemv_dense_selectorILi2ELi1ELb1EE3runINS_9TransposeIKNS_6MatrixIdLin1ELin1ELi0ELin1ELin1EEEEENS4_IKNS_5BlockIS7_Li1ELin1ELb0EEEEENS4_INS9_IS6_Li1ELin1ELb0EEEEEEEvRKT_RKT0_RT1_RKNSL_6ScalarE.isra.0, symObjAddr: 0x19420, symBinAddr: 0x10001A440, symSize: 0x210 }
  - { offsetInCU: 0x5E1CEA, offset: 0x5E1CEA, size: 0x8, addend: 0x0, symName: __ZN5Eigen8internal19gemv_dense_selectorILi2ELi1ELb1EE3runINS_9TransposeIKNS_6MatrixIdLin1ELin1ELi0ELin1ELin1EEEEENS4_IKNS5_IdLi1ELin1ELi1ELi1ELin1EEEEENS4_INS_5BlockIS6_Li1ELin1ELb0EEEEEEEvRKT_RKT0_RT1_RKNSL_6ScalarE.isra.0, symObjAddr: 0x19BB4, symBinAddr: 0x10001ABD4, symSize: 0x15C }
  - { offsetInCU: 0x5E1CF2, offset: 0x5E1CF2, size: 0x8, addend: 0x0, symName: __ZN5Eigen8internal17product_evaluatorINS_7ProductINS_6MatrixIdLin1ELin1ELi0ELin1ELin1EEES4_Li0EEELi8ENS_10DenseShapeES6_ddEC2ERKS5_, symObjAddr: 0x19D10, symBinAddr: 0x10001AD30, symSize: 0xF4 }
  - { offsetInCU: 0x5E243D, offset: 0x5E243D, size: 0x8, addend: 0x0, symName: __ZN5Eigen8internal17product_evaluatorINS_7ProductINS_6MatrixIdLin1ELin1ELi0ELin1ELin1EEES4_Li0EEELi8ENS_10DenseShapeES6_ddEC2ERKS5_, symObjAddr: 0x19D10, symBinAddr: 0x10001AD30, symSize: 0xF4 }
  - { offsetInCU: 0x5E2461, offset: 0x5E2461, size: 0x8, addend: 0x0, symName: __ZN5Eigen8internal17product_evaluatorINS_7ProductINS_6MatrixIdLin1ELin1ELi0ELin1ELin1EEES4_Li0EEELi8ENS_10DenseShapeES6_ddEC2ERKS5_, symObjAddr: 0x19D10, symBinAddr: 0x10001AD30, symSize: 0xF4 }
  - { offsetInCU: 0x5E24E9, offset: 0x5E24E9, size: 0x8, addend: 0x0, symName: __ZN4FMCA17H2SampletTreeBaseINS_13H2SampletTreeINS_11ClusterTreeEEEE29computeMultiscaleClusterBasisEv, symObjAddr: 0x1AF30, symBinAddr: 0x10001BF50, symSize: 0xC80 }
  - { offsetInCU: 0x5E866C, offset: 0x5E866C, size: 0x8, addend: 0x0, symName: __ZN4FMCA8internal26compute_cluster_bases_impl7computeINS_13H2SampletTreeINS_11ClusterTreeEEENS_14NystromMomentsINS_23TotalDegreeInterpolatorEEEEEvRNS_8TreeBaseIT_EERKT0_, symObjAddr: 0x1EB90, symBinAddr: 0x10001FBB0, symSize: 0xF80 }
  - { offsetInCU: 0x5EF9B1, offset: 0x5EF9B1, size: 0x8, addend: 0x0, symName: __ZN5Eigen8internal20generic_product_implINS_9TransposeIKNS_6MatrixIdLin1ELin1ELi0ELin1ELin1EEEEES4_NS_10DenseShapeES7_Li8EE6evalToIS4_EEvRT_RKS6_RS5_, symObjAddr: 0x251C0, symBinAddr: 0x1000261E0, symSize: 0xE0 }
  - { offsetInCU: 0x5EF9B9, offset: 0x5EF9B9, size: 0x8, addend: 0x0, symName: __ZN5Eigen8internal16parallelize_gemmILb1ENS0_12gemm_functorIdlNS0_29general_matrix_matrix_productIldLi1ELb0EdLi0ELb0ELi0ELi1EEENS_9TransposeIKNS_6MatrixIdLin1ELin1ELi0ELin1ELin1EEEEES7_S7_NS0_19gemm_blocking_spaceILi0EddLin1ELin1ELin1ELi1ELb0EEEEElEEvRKT0_T1_SG_SG_b._omp_fn.0, symObjAddr: 0x252A0, symBinAddr: 0x1000262C0, symSize: 0x190 }
  - { offsetInCU: 0x5F0008, offset: 0x5F0008, size: 0x8, addend: 0x0, symName: __ZN5Eigen8internal10AssignmentINS_6MatrixIdLin1ELin1ELi0ELin1ELin1EEENS_7InverseIS3_EENS0_9assign_opIddEENS0_11Dense2DenseEvE3runERS3_RKS5_RKS7_.isra.0, symObjAddr: 0x2D630, symBinAddr: 0x10002E650, symSize: 0x7A4 }
  - { offsetInCU: 0x5F0010, offset: 0x5F0010, size: 0x8, addend: 0x0, symName: __ZN4FMCA21NystromSampletMomentsINS_20MonomialInterpolatorEEC1ERKN5Eigen6MatrixIdLin1ELin1ELi0ELin1ELin1EEEj, symObjAddr: 0x2DDD4, symBinAddr: 0x10002EDF4, symSize: 0xA0C }
  - { offsetInCU: 0x45, offset: 0x5F3679, size: 0x8, addend: 0x0, symName: ___aarch64_have_lse_atomics, symObjAddr: 0x263, symBinAddr: 0x10003CC71, symSize: 0x0 }
...
